Archive member included because of file (symbol)

c:/program files (x86)/microsemi/softconsole v3.4/sourcery-g++/bin/../lib/gcc/arm-none-eabi/4.4.1/thumb2\libgcc.a(_arm_addsubdf3.o)
                              ./WebServer/httpd-cgi.o (__aeabi_i2d)
c:/program files (x86)/microsemi/softconsole v3.4/sourcery-g++/bin/../lib/gcc/arm-none-eabi/4.4.1/thumb2\libgcc.a(_arm_muldivdf3.o)
                              ./WebServer/httpd-cgi.o (__aeabi_ddiv)
c:/program files (x86)/microsemi/softconsole v3.4/sourcery-g++/bin/../lib/gcc/arm-none-eabi/4.4.1/../../../../arm-none-eabi/lib/thumb2\libc.a(lib_a-clock.o)
                              ./WebServer/httpd-cgi.o (clock)
c:/program files (x86)/microsemi/softconsole v3.4/sourcery-g++/bin/../lib/gcc/arm-none-eabi/4.4.1/../../../../arm-none-eabi/lib/thumb2\libc.a(lib_a-efgcvt.o)
                              ./main-full.o (gcvt)
c:/program files (x86)/microsemi/softconsole v3.4/sourcery-g++/bin/../lib/gcc/arm-none-eabi/4.4.1/../../../../arm-none-eabi/lib/thumb2\libc.a(lib_a-errno.o)
                              ./MicroSemi_Code/CMSIS/startup_gcc/newlib_stubs.o (__errno)
c:/program files (x86)/microsemi/softconsole v3.4/sourcery-g++/bin/../lib/gcc/arm-none-eabi/4.4.1/../../../../arm-none-eabi/lib/thumb2\libc.a(lib_a-impure.o)
                              c:/program files (x86)/microsemi/softconsole v3.4/sourcery-g++/bin/../lib/gcc/arm-none-eabi/4.4.1/../../../../arm-none-eabi/lib/thumb2\libc.a(lib_a-clock.o) (_impure_ptr)
c:/program files (x86)/microsemi/softconsole v3.4/sourcery-g++/bin/../lib/gcc/arm-none-eabi/4.4.1/../../../../arm-none-eabi/lib/thumb2\libc.a(lib_a-init.o)
                              ./MicroSemi_Code/CMSIS/startup_gcc/startup_a2fxxxm3.o (__libc_init_array)
c:/program files (x86)/microsemi/softconsole v3.4/sourcery-g++/bin/../lib/gcc/arm-none-eabi/4.4.1/../../../../arm-none-eabi/lib/thumb2\libc.a(lib_a-memcpy.o)
                              ./FreeTCPIP/psock.o (memcpy)
c:/program files (x86)/microsemi/softconsole v3.4/sourcery-g++/bin/../lib/gcc/arm-none-eabi/4.4.1/../../../../arm-none-eabi/lib/thumb2\libc.a(lib_a-memset.o)
                              ./MicroSemi_Code/drivers/mss_i2c/mss_i2c.o (memset)
c:/program files (x86)/microsemi/softconsole v3.4/sourcery-g++/bin/../lib/gcc/arm-none-eabi/4.4.1/../../../../arm-none-eabi/lib/thumb2\libc.a(lib_a-snprintf.o)
                              ./WebServer/httpd-cgi.o (snprintf)
c:/program files (x86)/microsemi/softconsole v3.4/sourcery-g++/bin/../lib/gcc/arm-none-eabi/4.4.1/../../../../arm-none-eabi/lib/thumb2\libc.a(lib_a-sprintf.o)
                              ./WebServer/httpd-cgi.o (sprintf)
c:/program files (x86)/microsemi/softconsole v3.4/sourcery-g++/bin/../lib/gcc/arm-none-eabi/4.4.1/../../../../arm-none-eabi/lib/thumb2\libc.a(lib_a-strcat.o)
                              ./WebServer/httpd-cgi.o (strcat)
c:/program files (x86)/microsemi/softconsole v3.4/sourcery-g++/bin/../lib/gcc/arm-none-eabi/4.4.1/../../../../arm-none-eabi/lib/thumb2\libc.a(lib_a-strchr.o)
                              ./uIP_Task.o (strchr)
c:/program files (x86)/microsemi/softconsole v3.4/sourcery-g++/bin/../lib/gcc/arm-none-eabi/4.4.1/../../../../arm-none-eabi/lib/thumb2\libc.a(lib_a-strcpy.o)
                              ./FreeTCPIP/http_Common/httpd.o (strcpy)
c:/program files (x86)/microsemi/softconsole v3.4/sourcery-g++/bin/../lib/gcc/arm-none-eabi/4.4.1/../../../../arm-none-eabi/lib/thumb2\libc.a(lib_a-strlen.o)
                              ./WebServer/httpd-cgi.o (strlen)
c:/program files (x86)/microsemi/softconsole v3.4/sourcery-g++/bin/../lib/gcc/arm-none-eabi/4.4.1/../../../../arm-none-eabi/lib/thumb2\libc.a(lib_a-strncmp.o)
                              ./WebServer/httpd-cgi.o (strncmp)
c:/program files (x86)/microsemi/softconsole v3.4/sourcery-g++/bin/../lib/gcc/arm-none-eabi/4.4.1/../../../../arm-none-eabi/lib/thumb2\libc.a(lib_a-strncpy.o)
                              ./FreeTCPIP/http_Common/httpd.o (strncpy)
c:/program files (x86)/microsemi/softconsole v3.4/sourcery-g++/bin/../lib/gcc/arm-none-eabi/4.4.1/../../../../arm-none-eabi/lib/thumb2\libc.a(lib_a-strrchr.o)
                              ./FreeTCPIP/http_Common/httpd.o (strrchr)
c:/program files (x86)/microsemi/softconsole v3.4/sourcery-g++/bin/../lib/gcc/arm-none-eabi/4.4.1/../../../../arm-none-eabi/lib/thumb2\libc.a(lib_a-strstr.o)
                              ./uIP_Task.o (strstr)
c:/program files (x86)/microsemi/softconsole v3.4/sourcery-g++/bin/../lib/gcc/arm-none-eabi/4.4.1/../../../../arm-none-eabi/lib/thumb2\libc.a(lib_a-svfprintf.o)
                              c:/program files (x86)/microsemi/softconsole v3.4/sourcery-g++/bin/../lib/gcc/arm-none-eabi/4.4.1/../../../../arm-none-eabi/lib/thumb2\libc.a(lib_a-snprintf.o) (_svfprintf_r)
c:/program files (x86)/microsemi/softconsole v3.4/sourcery-g++/bin/../lib/gcc/arm-none-eabi/4.4.1/../../../../arm-none-eabi/lib/thumb2\libc.a(lib_a-timesr.o)
                              c:/program files (x86)/microsemi/softconsole v3.4/sourcery-g++/bin/../lib/gcc/arm-none-eabi/4.4.1/../../../../arm-none-eabi/lib/thumb2\libc.a(lib_a-clock.o) (_times_r)
c:/program files (x86)/microsemi/softconsole v3.4/sourcery-g++/bin/../lib/gcc/arm-none-eabi/4.4.1/../../../../arm-none-eabi/lib/thumb2\libc.a(lib_a-dtoa.o)
                              c:/program files (x86)/microsemi/softconsole v3.4/sourcery-g++/bin/../lib/gcc/arm-none-eabi/4.4.1/../../../../arm-none-eabi/lib/thumb2\libc.a(lib_a-svfprintf.o) (_dtoa_r)
c:/program files (x86)/microsemi/softconsole v3.4/sourcery-g++/bin/../lib/gcc/arm-none-eabi/4.4.1/../../../../arm-none-eabi/lib/thumb2\libc.a(lib_a-ecvtbuf.o)
                              c:/program files (x86)/microsemi/softconsole v3.4/sourcery-g++/bin/../lib/gcc/arm-none-eabi/4.4.1/../../../../arm-none-eabi/lib/thumb2\libc.a(lib_a-efgcvt.o) (_gcvt)
c:/program files (x86)/microsemi/softconsole v3.4/sourcery-g++/bin/../lib/gcc/arm-none-eabi/4.4.1/../../../../arm-none-eabi/lib/thumb2\libc.a(lib_a-freer.o)
                              c:/program files (x86)/microsemi/softconsole v3.4/sourcery-g++/bin/../lib/gcc/arm-none-eabi/4.4.1/../../../../arm-none-eabi/lib/thumb2\libc.a(lib_a-svfprintf.o) (_free_r)
c:/program files (x86)/microsemi/softconsole v3.4/sourcery-g++/bin/../lib/gcc/arm-none-eabi/4.4.1/../../../../arm-none-eabi/lib/thumb2\libc.a(lib_a-locale.o)
                              c:/program files (x86)/microsemi/softconsole v3.4/sourcery-g++/bin/../lib/gcc/arm-none-eabi/4.4.1/../../../../arm-none-eabi/lib/thumb2\libc.a(lib_a-svfprintf.o) (_localeconv_r)
c:/program files (x86)/microsemi/softconsole v3.4/sourcery-g++/bin/../lib/gcc/arm-none-eabi/4.4.1/../../../../arm-none-eabi/lib/thumb2\libc.a(lib_a-malloc.o)
                              c:/program files (x86)/microsemi/softconsole v3.4/sourcery-g++/bin/../lib/gcc/arm-none-eabi/4.4.1/../../../../arm-none-eabi/lib/thumb2\libc.a(lib_a-dtoa.o) (malloc)
c:/program files (x86)/microsemi/softconsole v3.4/sourcery-g++/bin/../lib/gcc/arm-none-eabi/4.4.1/../../../../arm-none-eabi/lib/thumb2\libc.a(lib_a-mallocr.o)
                              c:/program files (x86)/microsemi/softconsole v3.4/sourcery-g++/bin/../lib/gcc/arm-none-eabi/4.4.1/../../../../arm-none-eabi/lib/thumb2\libc.a(lib_a-svfprintf.o) (_malloc_r)
c:/program files (x86)/microsemi/softconsole v3.4/sourcery-g++/bin/../lib/gcc/arm-none-eabi/4.4.1/../../../../arm-none-eabi/lib/thumb2\libc.a(lib_a-memchr.o)
                              c:/program files (x86)/microsemi/softconsole v3.4/sourcery-g++/bin/../lib/gcc/arm-none-eabi/4.4.1/../../../../arm-none-eabi/lib/thumb2\libc.a(lib_a-strstr.o) (memchr)
c:/program files (x86)/microsemi/softconsole v3.4/sourcery-g++/bin/../lib/gcc/arm-none-eabi/4.4.1/../../../../arm-none-eabi/lib/thumb2\libc.a(lib_a-memcmp.o)
                              c:/program files (x86)/microsemi/softconsole v3.4/sourcery-g++/bin/../lib/gcc/arm-none-eabi/4.4.1/../../../../arm-none-eabi/lib/thumb2\libc.a(lib_a-strstr.o) (memcmp)
c:/program files (x86)/microsemi/softconsole v3.4/sourcery-g++/bin/../lib/gcc/arm-none-eabi/4.4.1/../../../../arm-none-eabi/lib/thumb2\libc.a(lib_a-memmove.o)
                              c:/program files (x86)/microsemi/softconsole v3.4/sourcery-g++/bin/../lib/gcc/arm-none-eabi/4.4.1/../../../../arm-none-eabi/lib/thumb2\libc.a(lib_a-svfprintf.o) (memmove)
c:/program files (x86)/microsemi/softconsole v3.4/sourcery-g++/bin/../lib/gcc/arm-none-eabi/4.4.1/../../../../arm-none-eabi/lib/thumb2\libc.a(lib_a-mlock.o)
                              c:/program files (x86)/microsemi/softconsole v3.4/sourcery-g++/bin/../lib/gcc/arm-none-eabi/4.4.1/../../../../arm-none-eabi/lib/thumb2\libc.a(lib_a-freer.o) (__malloc_lock)
c:/program files (x86)/microsemi/softconsole v3.4/sourcery-g++/bin/../lib/gcc/arm-none-eabi/4.4.1/../../../../arm-none-eabi/lib/thumb2\libc.a(lib_a-mprec.o)
                              c:/program files (x86)/microsemi/softconsole v3.4/sourcery-g++/bin/../lib/gcc/arm-none-eabi/4.4.1/../../../../arm-none-eabi/lib/thumb2\libc.a(lib_a-dtoa.o) (__hi0bits)
c:/program files (x86)/microsemi/softconsole v3.4/sourcery-g++/bin/../lib/gcc/arm-none-eabi/4.4.1/../../../../arm-none-eabi/lib/thumb2\libc.a(lib_a-reallocr.o)
                              c:/program files (x86)/microsemi/softconsole v3.4/sourcery-g++/bin/../lib/gcc/arm-none-eabi/4.4.1/../../../../arm-none-eabi/lib/thumb2\libc.a(lib_a-svfprintf.o) (_realloc_r)
c:/program files (x86)/microsemi/softconsole v3.4/sourcery-g++/bin/../lib/gcc/arm-none-eabi/4.4.1/../../../../arm-none-eabi/lib/thumb2\libc.a(lib_a-s_isinfd.o)
                              c:/program files (x86)/microsemi/softconsole v3.4/sourcery-g++/bin/../lib/gcc/arm-none-eabi/4.4.1/../../../../arm-none-eabi/lib/thumb2\libc.a(lib_a-svfprintf.o) (__isinfd)
c:/program files (x86)/microsemi/softconsole v3.4/sourcery-g++/bin/../lib/gcc/arm-none-eabi/4.4.1/../../../../arm-none-eabi/lib/thumb2\libc.a(lib_a-s_isnand.o)
                              c:/program files (x86)/microsemi/softconsole v3.4/sourcery-g++/bin/../lib/gcc/arm-none-eabi/4.4.1/../../../../arm-none-eabi/lib/thumb2\libc.a(lib_a-svfprintf.o) (__isnand)
c:/program files (x86)/microsemi/softconsole v3.4/sourcery-g++/bin/../lib/gcc/arm-none-eabi/4.4.1/../../../../arm-none-eabi/lib/thumb2\libc.a(lib_a-sbrkr.o)
                              c:/program files (x86)/microsemi/softconsole v3.4/sourcery-g++/bin/../lib/gcc/arm-none-eabi/4.4.1/../../../../arm-none-eabi/lib/thumb2\libc.a(lib_a-freer.o) (_sbrk_r)
c:/program files (x86)/microsemi/softconsole v3.4/sourcery-g++/bin/../lib/gcc/arm-none-eabi/4.4.1/../../../../arm-none-eabi/lib/thumb2\libc.a(lib_a-strcmp.o)
                              c:/program files (x86)/microsemi/softconsole v3.4/sourcery-g++/bin/../lib/gcc/arm-none-eabi/4.4.1/../../../../arm-none-eabi/lib/thumb2\libc.a(lib_a-locale.o) (strcmp)
c:/program files (x86)/microsemi/softconsole v3.4/sourcery-g++/bin/../lib/gcc/arm-none-eabi/4.4.1/../../../../arm-none-eabi/lib/thumb2\libc.a(lib_a-callocr.o)
                              c:/program files (x86)/microsemi/softconsole v3.4/sourcery-g++/bin/../lib/gcc/arm-none-eabi/4.4.1/../../../../arm-none-eabi/lib/thumb2\libc.a(lib_a-mprec.o) (_calloc_r)
c:/program files (x86)/microsemi/softconsole v3.4/sourcery-g++/bin/../lib/gcc/arm-none-eabi/4.4.1/../../../../arm-none-eabi/lib/thumb2\libc.a(lib_a-reent.o)
                              c:/program files (x86)/microsemi/softconsole v3.4/sourcery-g++/bin/../lib/gcc/arm-none-eabi/4.4.1/../../../../arm-none-eabi/lib/thumb2\libc.a(lib_a-sbrkr.o) (errno)
c:/program files (x86)/microsemi/softconsole v3.4/sourcery-g++/bin/../lib/gcc/arm-none-eabi/4.4.1/thumb2\libgcc.a(_udivsi3.o)
                              c:/program files (x86)/microsemi/softconsole v3.4/sourcery-g++/bin/../lib/gcc/arm-none-eabi/4.4.1/../../../../arm-none-eabi/lib/thumb2\libc.a(lib_a-dtoa.o) (__aeabi_uidiv)
c:/program files (x86)/microsemi/softconsole v3.4/sourcery-g++/bin/../lib/gcc/arm-none-eabi/4.4.1/thumb2\libgcc.a(_dvmd_tls.o)
                              c:/program files (x86)/microsemi/softconsole v3.4/sourcery-g++/bin/../lib/gcc/arm-none-eabi/4.4.1/thumb2\libgcc.a(_udivsi3.o) (__aeabi_idiv0)
c:/program files (x86)/microsemi/softconsole v3.4/sourcery-g++/bin/../lib/gcc/arm-none-eabi/4.4.1/thumb2\libgcc.a(_arm_cmpdf2.o)
                              c:/program files (x86)/microsemi/softconsole v3.4/sourcery-g++/bin/../lib/gcc/arm-none-eabi/4.4.1/../../../../arm-none-eabi/lib/thumb2\libc.a(lib_a-svfprintf.o) (__aeabi_dcmpeq)
c:/program files (x86)/microsemi/softconsole v3.4/sourcery-g++/bin/../lib/gcc/arm-none-eabi/4.4.1/thumb2\libgcc.a(_arm_fixdfsi.o)
                              c:/program files (x86)/microsemi/softconsole v3.4/sourcery-g++/bin/../lib/gcc/arm-none-eabi/4.4.1/../../../../arm-none-eabi/lib/thumb2\libc.a(lib_a-dtoa.o) (__aeabi_d2iz)
c:/program files (x86)/microsemi/softconsole v3.4/sourcery-g++/bin/../lib/gcc/arm-none-eabi/4.4.1/thumb2\libgcc.a(_aeabi_uldivmod.o)
                              c:/program files (x86)/microsemi/softconsole v3.4/sourcery-g++/bin/../lib/gcc/arm-none-eabi/4.4.1/../../../../arm-none-eabi/lib/thumb2\libc.a(lib_a-svfprintf.o) (__aeabi_uldivmod)
c:/program files (x86)/microsemi/softconsole v3.4/sourcery-g++/bin/../lib/gcc/arm-none-eabi/4.4.1/thumb2\libgcc.a(bpabi.o)
                              c:/program files (x86)/microsemi/softconsole v3.4/sourcery-g++/bin/../lib/gcc/arm-none-eabi/4.4.1/thumb2\libgcc.a(_aeabi_uldivmod.o) (__gnu_uldivmod_helper)
c:/program files (x86)/microsemi/softconsole v3.4/sourcery-g++/bin/../lib/gcc/arm-none-eabi/4.4.1/thumb2\libgcc.a(_divdi3.o)
                              c:/program files (x86)/microsemi/softconsole v3.4/sourcery-g++/bin/../lib/gcc/arm-none-eabi/4.4.1/thumb2\libgcc.a(bpabi.o) (__divdi3)
c:/program files (x86)/microsemi/softconsole v3.4/sourcery-g++/bin/../lib/gcc/arm-none-eabi/4.4.1/thumb2\libgcc.a(_udivdi3.o)
                              c:/program files (x86)/microsemi/softconsole v3.4/sourcery-g++/bin/../lib/gcc/arm-none-eabi/4.4.1/thumb2\libgcc.a(bpabi.o) (__udivdi3)

Allocating common symbols
Common symbol       size              file

ulString            0x4               ./WebServer/httpd-cgi.o
uip_len             0x2               ./FreeTCPIP/uip.o
errno               0x4               c:/program files (x86)/microsemi/softconsole v3.4/sourcery-g++/bin/../lib/gcc/arm-none-eabi/4.4.1/../../../../arm-none-eabi/lib/thumb2\libc.a(lib_a-reent.o)
pcStatus            0x4               ./WebServer/httpd-cgi.o
uip_sappdata        0x4               ./FreeTCPIP/uip.o
uip_acc32           0x4               ./FreeTCPIP/uip.o
g_mss_mac           0x134             ./MicroSemi_Code/drivers/mss_ethernet_mac/mss_ethernet_mac.o
uip_flags           0x1               ./FreeTCPIP/uip.o
std_menu            0x1               ./main-full.o
g_mss_uart1         0x28              ./MicroSemi_Code/drivers/mss_uart/mss_uart.o
uip_appdata         0x4               ./FreeTCPIP/uip.o
uip_conn            0x4               ./FreeTCPIP/uip.o
uip_conns           0x1fe0            ./FreeTCPIP/uip.o
g_mss_i2c0          0x74              ./MicroSemi_Code/drivers/mss_i2c/mss_i2c.o
g_mss_uart0         0x28              ./MicroSemi_Code/drivers/mss_uart/mss_uart.o
uip_listenports     0x50              ./FreeTCPIP/uip.o
uip_draddr          0x4               ./FreeTCPIP/uip.o
uip_stat            0x38              ./FreeTCPIP/uip.o
inMultimeter        0x1               ./main-full.o
g_mss_i2c1          0x74              ./MicroSemi_Code/drivers/mss_i2c/mss_i2c.o
uip_netmask         0x4               ./FreeTCPIP/uip.o
uip_hostaddr        0x4               ./FreeTCPIP/uip.o
uip_slen            0x2               ./FreeTCPIP/uip.o

Memory Configuration

Name             Origin             Length             Attributes
rom              0x60000000         0x00040000         xr
romMirror        0x00000000         0x00040000         xr
ram              0x20000000         0x00010000         xrw
*default*        0x00000000         0xffffffff

Linker script and memory map

LOAD c:/program files (x86)/microsemi/softconsole v3.4/sourcery-g++/bin/../lib/gcc/arm-none-eabi/4.4.1/thumb2/crti.o
LOAD c:/program files (x86)/microsemi/softconsole v3.4/sourcery-g++/bin/../lib/gcc/arm-none-eabi/4.4.1/thumb2/crtbegin.o
LOAD ./ParTest.o
LOAD ./main-full.o
LOAD ./uIP_Task.o
LOAD ./uart_task.o
LOAD ./WebServer/httpd-cgi.o
LOAD ./MicroSemi_Code/hal/CortexM3/cortex_nvic.o
LOAD ./MicroSemi_Code/hal/CortexM3/GNU/hal.o
LOAD ./MicroSemi_Code/hal/CortexM3/GNU/hal_assert.o
LOAD ./MicroSemi_Code/hal/CortexM3/GNU/hw_reg_access.o
LOAD ./MicroSemi_Code/drivers_config/mss_ace/ace_config.o
LOAD ./MicroSemi_Code/drivers/mss_uart/mss_uart.o
LOAD ./MicroSemi_Code/drivers/mss_i2c/mss_i2c.o
LOAD ./MicroSemi_Code/drivers/mss_gpio/mss_gpio.o
LOAD ./MicroSemi_Code/drivers/mss_ethernet_mac/crc32.o
LOAD ./MicroSemi_Code/drivers/mss_ethernet_mac/mss_ethernet_mac.o
LOAD ./MicroSemi_Code/drivers/mss_ethernet_mac/phy.o
LOAD ./MicroSemi_Code/drivers/mss_ace/ace_convert.o
LOAD ./MicroSemi_Code/drivers/mss_ace/ace_flags.o
LOAD ./MicroSemi_Code/drivers/mss_ace/ace_sse.o
LOAD ./MicroSemi_Code/drivers/mss_ace/ace_transform.o
LOAD ./MicroSemi_Code/drivers/mss_ace/mss_ace.o
LOAD ./MicroSemi_Code/CMSIS/brownout_isr.o
LOAD ./MicroSemi_Code/CMSIS/core_cm3.o
LOAD ./MicroSemi_Code/CMSIS/system_a2fxxxm3.o
LOAD ./MicroSemi_Code/CMSIS/startup_gcc/newlib_stubs.o
LOAD ./MicroSemi_Code/CMSIS/startup_gcc/startup_a2fxxxm3.o
LOAD ./Helpers/uart_helper.o
LOAD ./FreeTCPIP/psock.o
LOAD ./FreeTCPIP/timer.o
LOAD ./FreeTCPIP/uip.o
LOAD ./FreeTCPIP/uip_arp.o
LOAD ./FreeTCPIP/http_Common/http-strings.o
LOAD ./FreeTCPIP/http_Common/httpd-fs.o
LOAD ./FreeTCPIP/http_Common/httpd.o
LOAD ./FreeRTOS_Source/list.o
LOAD ./FreeRTOS_Source/queue.o
LOAD ./FreeRTOS_Source/tasks.o
LOAD ./FreeRTOS_Source/timers.o
LOAD ./FreeRTOS_Source/portable/MemMang/heap_2.o
LOAD ./FreeRTOS_Source/portable/GCC/ARM_CM3/port.o
START GROUP
LOAD c:/program files (x86)/microsemi/softconsole v3.4/sourcery-g++/bin/../lib/gcc/arm-none-eabi/4.4.1/thumb2\libgcc.a
LOAD c:/program files (x86)/microsemi/softconsole v3.4/sourcery-g++/bin/../lib/gcc/arm-none-eabi/4.4.1/../../../../arm-none-eabi/lib/thumb2\libc.a
LOAD c:/program files (x86)/microsemi/softconsole v3.4/sourcery-g++/bin/../lib/gcc/arm-none-eabi/4.4.1/thumb2\libgcc.a
END GROUP
LOAD c:/program files (x86)/microsemi/softconsole v3.4/sourcery-g++/bin/../lib/gcc/arm-none-eabi/4.4.1/thumb2/crtend.o
LOAD c:/program files (x86)/microsemi/softconsole v3.4/sourcery-g++/bin/../lib/gcc/arm-none-eabi/4.4.1/thumb2/crtn.o
START GROUP
LOAD c:/program files (x86)/microsemi/softconsole v3.4/sourcery-g++/bin/../lib/gcc/arm-none-eabi/4.4.1/../../../../arm-none-eabi/lib/thumb2\libc.a
LOAD c:/program files (x86)/microsemi/softconsole v3.4/sourcery-g++/bin/../lib/gcc/arm-none-eabi/4.4.1/thumb2\libgcc.a
LOAD c:/program files (x86)/microsemi/softconsole v3.4/sourcery-g++/bin/../lib/gcc/arm-none-eabi/4.4.1/../../../../arm-none-eabi/lib/thumb2\libm.a
END GROUP
                0x00000000                __DYNAMIC = 0x0
                0x20000000                RAM_START_ADDRESS = 0x20000000
                0x00010000                RAM_SIZE = 0x10000
                0x00002000                MAIN_STACK_SIZE = 0x2000
                0x00001000                PROCESS_STACK_SIZE = 0x1000
                0x20010000                PROVIDE (__main_stack_start, (RAM_START_ADDRESS + RAM_SIZE))
                0x2000e000                PROVIDE (__process_stack_start, (__main_stack_start - MAIN_STACK_SIZE))
                0x20010000                PROVIDE (_estack, __main_stack_start)
                0x00000001                PROVIDE (__mirrored_nvm, 0x1)

.init           0x00000000      0x470 load address 0x60000000
                0x00000000                __vector_table_vma_base_address = .
 *(.isr_vector)
 .isr_vector    0x00000000      0x470 ./MicroSemi_Code/CMSIS/startup_gcc/startup_a2fxxxm3.o
                0x00000000                g_pfnVectors
                0x00000298                Reset_Handler
                0x00000308                NMI_Handler
                0x0000030a                HardFault_Handler
                0x0000030c                MemManage_Handler
                0x0000030e                BusFault_Handler
                0x00000310                UsageFault_Handler
                0x00000314                DebugMon_Handler
                0x0000031a                WdogWakeup_IRQHandler
                0x0000031e                BrownOut_3_3V_IRQHandler
                0x00000320                RTC_Match_IRQHandler
                0x00000322                RTCIF_Pub_IRQHandler
                0x00000326                IAP_IRQHandler
                0x00000328                ENVM0_IRQHandler
                0x0000032a                ENVM1_IRQHandler
                0x0000032c                DMA_IRQHandler
                0x00000332                SPI0_IRQHandler
                0x00000334                SPI1_IRQHandler
                0x00000338                I2C0_SMBAlert_IRQHandler
                0x0000033a                I2C0_SMBus_IRQHandler
                0x0000033e                I2C1_SMBAlert_IRQHandler
                0x00000340                I2C1_SMBus_IRQHandler
                0x00000342                Timer1_IRQHandler
                0x00000344                Timer2_IRQHandler
                0x00000346                PLL_Lock_IRQHandler
                0x00000348                PLL_LockLost_IRQHandler
                0x0000034a                CommError_IRQHandler
                0x0000034c                Fabric_IRQHandler
                0x0000034e                GPIO0_IRQHandler
                0x00000350                GPIO1_IRQHandler
                0x00000352                GPIO2_IRQHandler
                0x00000354                GPIO3_IRQHandler
                0x00000356                GPIO4_IRQHandler
                0x00000358                GPIO5_IRQHandler
                0x0000035a                GPIO6_IRQHandler
                0x0000035c                GPIO7_IRQHandler
                0x00000360                GPIO9_IRQHandler
                0x00000362                GPIO10_IRQHandler
                0x00000364                GPIO11_IRQHandler
                0x00000366                GPIO12_IRQHandler
                0x00000368                GPIO13_IRQHandler
                0x0000036a                GPIO14_IRQHandler
                0x0000036c                GPIO15_IRQHandler
                0x0000036e                GPIO16_IRQHandler
                0x00000370                GPIO17_IRQHandler
                0x00000372                GPIO18_IRQHandler
                0x00000374                GPIO19_IRQHandler
                0x00000376                GPIO20_IRQHandler
                0x00000378                GPIO21_IRQHandler
                0x0000037a                GPIO22_IRQHandler
                0x0000037c                GPIO23_IRQHandler
                0x0000037e                GPIO24_IRQHandler
                0x00000380                GPIO25_IRQHandler
                0x00000382                GPIO26_IRQHandler
                0x00000384                GPIO27_IRQHandler
                0x00000386                GPIO28_IRQHandler
                0x00000388                GPIO29_IRQHandler
                0x0000038a                GPIO30_IRQHandler
                0x0000038c                GPIO31_IRQHandler
                0x0000038e                ACE_PC0_Flag0_IRQHandler
                0x00000390                ACE_PC0_Flag1_IRQHandler
                0x00000392                ACE_PC0_Flag2_IRQHandler
                0x00000394                ACE_PC0_Flag3_IRQHandler
                0x00000396                ACE_PC1_Flag0_IRQHandler
                0x00000398                ACE_PC1_Flag1_IRQHandler
                0x0000039a                ACE_PC1_Flag2_IRQHandler
                0x0000039c                ACE_PC1_Flag3_IRQHandler
                0x0000039e                ACE_PC2_Flag0_IRQHandler
                0x000003a0                ACE_PC2_Flag1_IRQHandler
                0x000003a2                ACE_PC2_Flag2_IRQHandler
                0x000003a4                ACE_PC2_Flag3_IRQHandler
                0x000003a6                ACE_ADC0_DataValid_IRQHandler
                0x000003a8                ACE_ADC1_DataValid_IRQHandler
                0x000003aa                ACE_ADC2_DataValid_IRQHandler
                0x000003ac                ACE_ADC0_CalDone_IRQHandler
                0x000003ae                ACE_ADC1_CalDone_IRQHandler
                0x000003b0                ACE_ADC2_CalDone_IRQHandler
                0x000003b2                ACE_ADC0_CalStart_IRQHandler
                0x000003b4                ACE_ADC1_CalStart_IRQHandler
                0x000003b6                ACE_ADC2_CalStart_IRQHandler
                0x000003b8                ACE_Comp0_Fall_IRQHandler
                0x000003ba                ACE_Comp1_Fall_IRQHandler
                0x000003bc                ACE_Comp2_Fall_IRQHandler
                0x000003be                ACE_Comp3_Fall_IRQHandler
                0x000003c0                ACE_Comp4_Fall_IRQHandler
                0x000003c2                ACE_Comp5_Fall_IRQHandler
                0x000003c4                ACE_Comp6_Fall_IRQHandler
                0x000003c6                ACE_Comp7_Fall_IRQHandler
                0x000003c8                ACE_Comp8_Fall_IRQHandler
                0x000003ca                ACE_Comp9_Fall_IRQHandler
                0x000003cc                ACE_Comp10_Fall_IRQHandler
                0x000003ce                ACE_Comp11_Fall_IRQHandler
                0x000003d0                ACE_Comp0_Rise_IRQHandler
                0x000003d2                ACE_Comp1_Rise_IRQHandler
                0x000003d4                ACE_Comp2_Rise_IRQHandler
                0x000003d6                ACE_Comp3_Rise_IRQHandler
                0x000003d8                ACE_Comp4_Rise_IRQHandler
                0x000003da                ACE_Comp5_Rise_IRQHandler
                0x000003dc                ACE_Comp6_Rise_IRQHandler
                0x000003de                ACE_Comp7_Rise_IRQHandler
                0x000003e0                ACE_Comp8_Rise_IRQHandler
                0x000003e2                ACE_Comp9_Rise_IRQHandler
                0x000003e4                ACE_Comp10_Rise_IRQHandler
                0x000003e6                ACE_Comp11_Rise_IRQHandler
                0x000003e8                ACE_ADC0_FifoFull_IRQHandler
                0x000003ea                ACE_ADC0_FifoAFull_IRQHandler
                0x000003ec                ACE_ADC0_FifoEmpty_IRQHandler
                0x000003ee                ACE_ADC1_FifoFull_IRQHandler
                0x000003f0                ACE_ADC1_FifoAFull_IRQHandler
                0x000003f2                ACE_ADC1_FifoEmpty_IRQHandler
                0x000003f4                ACE_ADC2_FifoFull_IRQHandler
                0x000003f6                ACE_ADC2_FifoAFull_IRQHandler
                0x000003f8                ACE_ADC2_FifoEmpty_IRQHandler
                0x00000470                . = ALIGN (0x4)

.text           0x00000470    0x23e30 load address 0x60000470
 CREATE_OBJECT_SYMBOLS
                0x60000470                __text_load = LOADADDR (.text)
                0x00000470                __text_start = .
 *(.text .text.* .gnu.linkonce.t.*)
 .text          0x00000470        0x0 c:/program files (x86)/microsemi/softconsole v3.4/sourcery-g++/bin/../lib/gcc/arm-none-eabi/4.4.1/thumb2/crti.o
 .text          0x00000470       0x30 c:/program files (x86)/microsemi/softconsole v3.4/sourcery-g++/bin/../lib/gcc/arm-none-eabi/4.4.1/thumb2/crtbegin.o
 .text          0x000004a0        0x0 ./ParTest.o
 .text.MSS_GPIO_set_outputs
                0x000004a0       0x20 ./ParTest.o
 .text.vParTestInitialise
                0x000004c0       0x54 ./ParTest.o
                0x000004c0                vParTestInitialise
 .text.vParTestSetLED
                0x00000514       0x80 ./ParTest.o
                0x00000514                vParTestSetLED
 .text.vParTestSetLEDFromISR
                0x00000594       0xa0 ./ParTest.o
                0x00000594                vParTestSetLEDFromISR
 .text.vParTestToggleLED
                0x00000634       0x94 ./ParTest.o
                0x00000634                vParTestToggleLED
 .text.lParTestGetLEDState
                0x000006c8       0x48 ./ParTest.o
                0x000006c8                lParTestGetLEDState
 .text          0x00000710        0x0 ./main-full.o
 .text.NVIC_EnableIRQ
                0x00000710       0x38 ./main-full.o
 .text.NVIC_DisableIRQ
                0x00000748       0x3c ./main-full.o
 .text.NVIC_ClearPendingIRQ
                0x00000784       0x3c ./main-full.o
 .text.NVIC_SetPriority
                0x000007c0       0x5c ./main-full.o
 .text.MSS_TIM64_init
                0x0000081c       0xa4 ./main-full.o
 .text.MSS_TIM64_start
                0x000008c0       0x1c ./main-full.o
 .text.MSS_TIM64_load_immediate
                0x000008dc       0x2c ./main-full.o
 .text.main     0x00000908      0x108 ./main-full.o
                0x00000908                main
 .text.prvCheckTimerCallback
                0x00000a10       0x40 ./main-full.o
 .text.GPIO8_IRQHandler
                0x00000a50       0x38 ./main-full.o
                0x00000a50                GPIO8_IRQHandler
 .text.prvQueueSendTask
                0x00000a88       0x6c ./main-full.o
 .text.prvQueueReceiveTask
                0x00000af4       0x38 ./main-full.o
 .text.prvSetupHardware
                0x00000b2c       0x50 ./main-full.o
 .text.vApplicationMallocFailedHook
                0x00000b7c        0x8 ./main-full.o
                0x00000b7c                vApplicationMallocFailedHook
 .text.vApplicationStackOverflowHook
                0x00000b84       0x20 ./main-full.o
                0x00000b84                vApplicationStackOverflowHook
 .text.vApplicationIdleHook
                0x00000ba4       0x18 ./main-full.o
                0x00000ba4                vApplicationIdleHook
 .text.pcGetTaskStatusMessage
                0x00000bbc       0x30 ./main-full.o
                0x00000bbc                pcGetTaskStatusMessage
 .text.vMainConfigureTimerForRunTimeStats
                0x00000bec       0x28 ./main-full.o
                0x00000bec                vMainConfigureTimerForRunTimeStats
 .text.ulGetRunTimeCounterValue
                0x00000c14       0x10 ./main-full.o
                0x00000c14                ulGetRunTimeCounterValue
 *fill*         0x00000c24        0x4 00
 .text.uart_task
                0x00000c28       0xf8 ./main-full.o
                0x00000c28                uart_task
 .text          0x00000d20        0x0 ./uIP_Task.o
 .text.NVIC_EnableIRQ
                0x00000d20       0x38 ./uIP_Task.o
 .text.NVIC_SetPriority
                0x00000d58       0x5c ./uIP_Task.o
 .text.clock_time
                0x00000db4       0x10 ./uIP_Task.o
                0x00000db4                clock_time
 .text.vuIP_Task
                0x00000dc4      0x198 ./uIP_Task.o
                0x00000dc4                vuIP_Task
 .text.prvSetMACAddress
                0x00000f5c       0x7c ./uIP_Task.o
 .text.prvInitialise_uIP
                0x00000fd8      0x180 ./uIP_Task.o
 .text.prvEMACEventListener
                0x00001158       0x94 ./uIP_Task.o
 .text.prvInitEmac
                0x000011ec       0x3c ./uIP_Task.o
 .text.vEMACWrite
                0x00001228       0x54 ./uIP_Task.o
                0x00001228                vEMACWrite
 .text.prvUIPTimerCallback
                0x0000127c       0x64 ./uIP_Task.o
 .text.vApplicationProcessFormInput
                0x000012e0       0x9c ./uIP_Task.o
                0x000012e0                vApplicationProcessFormInput
 .text          0x0000137c        0x0 ./uart_task.o
 .text          0x0000137c        0x0 ./WebServer/httpd-cgi.o
 .text.nullfunction
                0x0000137c       0x30 ./WebServer/httpd-cgi.o
 .text.httpd_cgi
                0x000013ac       0x64 ./WebServer/httpd-cgi.o
                0x000013ac                httpd_cgi
 .text.generate_file_stats
                0x00001410       0x40 ./WebServer/httpd-cgi.o
 .text.file_stats
                0x00001450       0x74 ./WebServer/httpd-cgi.o
 .text.generate_tcp_stats
                0x000014c4      0x120 ./WebServer/httpd-cgi.o
 .text.tcp_stats
                0x000015e4       0xb4 ./WebServer/httpd-cgi.o
 .text.generate_net_stats
                0x00001698       0x4c ./WebServer/httpd-cgi.o
 .text.net_stats
                0x000016e4       0x8c ./WebServer/httpd-cgi.o
 .text.generate_rtos_stats
                0x00001770       0x8c ./WebServer/httpd-cgi.o
 .text.rtos_stats
                0x000017fc       0x68 ./WebServer/httpd-cgi.o
 .text.generate_io_state
                0x00001864       0x94 ./WebServer/httpd-cgi.o
 .text.generate_runtime_stats
                0x000018f8       0x88 ./WebServer/httpd-cgi.o
 .text.run_time
                0x00001980       0x68 ./WebServer/httpd-cgi.o
 .text.led_io   0x000019e8       0x68 ./WebServer/httpd-cgi.o
 .text.delaySecs
                0x00001a50       0x34 ./WebServer/httpd-cgi.o
                0x00001a50                delaySecs
 *fill*         0x00001a84        0x4 00
 .text.pot_voltage
                0x00001a88       0xd0 ./WebServer/httpd-cgi.o
 .text          0x00001b58        0x0 ./MicroSemi_Code/hal/CortexM3/cortex_nvic.o
 .text.NVIC_init
                0x00001b58        0xc ./MicroSemi_Code/hal/CortexM3/cortex_nvic.o
                0x00001b58                NVIC_init
 .text.NVIC_set_handler
                0x00001b64       0x18 ./MicroSemi_Code/hal/CortexM3/cortex_nvic.o
                0x00001b64                NVIC_set_handler
 .text.NVIC_set_priority
                0x00001b7c       0x18 ./MicroSemi_Code/hal/CortexM3/cortex_nvic.o
                0x00001b7c                NVIC_set_priority
 .text.NVIC_enable_interrupt
                0x00001b94       0x14 ./MicroSemi_Code/hal/CortexM3/cortex_nvic.o
                0x00001b94                NVIC_enable_interrupt
 .text.NVIC_disable_interrupt
                0x00001ba8       0x14 ./MicroSemi_Code/hal/CortexM3/cortex_nvic.o
                0x00001ba8                NVIC_disable_interrupt
 .text.NVIC_clear_interrupt
                0x00001bbc       0x14 ./MicroSemi_Code/hal/CortexM3/cortex_nvic.o
                0x00001bbc                NVIC_clear_interrupt
 .text          0x00001bd0        0xe ./MicroSemi_Code/hal/CortexM3/GNU/hal.o
                0x00001bd0                HAL_disable_interrupts
                0x00001bd8                HAL_restore_interrupts
 .text          0x00001bde        0x0 ./MicroSemi_Code/hal/CortexM3/GNU/hal_assert.o
 *fill*         0x00001bde        0x2 00
 .text.HAL_assert_fail
                0x00001be0       0x28 ./MicroSemi_Code/hal/CortexM3/GNU/hal_assert.o
                0x00001be0                HAL_assert_fail
 .text          0x00001c08       0x90 ./MicroSemi_Code/hal/CortexM3/GNU/hw_reg_access.o
                0x00001c08                HW_set_32bit_reg
                0x00001c0c                HW_get_32bit_reg
                0x00001c10                HW_set_32bit_reg_field
                0x00001c2c                HW_get_32bit_reg_field
                0x00001c38                HW_set_16bit_reg
                0x00001c3c                HW_get_16bit_reg
                0x00001c40                HW_set_16bit_reg_field
                0x00001c5c                HW_get_16bit_reg_field
                0x00001c68                HW_set_8bit_reg
                0x00001c6c                HW_get_8bit_reg
                0x00001c70                HW_set_8bit_reg_field
                0x00001c8c                HW_get_8bit_reg_field
 .text          0x00001c98        0x0 ./MicroSemi_Code/drivers_config/mss_ace/ace_config.o
 .text          0x00001c98        0x0 ./MicroSemi_Code/drivers/mss_uart/mss_uart.o
 .text.NVIC_EnableIRQ
                0x00001c98       0x38 ./MicroSemi_Code/drivers/mss_uart/mss_uart.o
 .text.NVIC_DisableIRQ
                0x00001cd0       0x3c ./MicroSemi_Code/drivers/mss_uart/mss_uart.o
 .text.NVIC_ClearPendingIRQ
                0x00001d0c       0x3c ./MicroSemi_Code/drivers/mss_uart/mss_uart.o
 .text.MSS_UART_init
                0x00001d48      0x204 ./MicroSemi_Code/drivers/mss_uart/mss_uart.o
                0x00001d48                MSS_UART_init
 .text.MSS_UART_polled_tx
                0x00001f4c       0xe4 ./MicroSemi_Code/drivers/mss_uart/mss_uart.o
                0x00001f4c                MSS_UART_polled_tx
 .text.MSS_UART_polled_tx_string
                0x00002030       0xd0 ./MicroSemi_Code/drivers/mss_uart/mss_uart.o
                0x00002030                MSS_UART_polled_tx_string
 .text.MSS_UART_irq_tx
                0x00002100       0xb0 ./MicroSemi_Code/drivers/mss_uart/mss_uart.o
                0x00002100                MSS_UART_irq_tx
 .text.MSS_UART_tx_complete
                0x000021b0       0x90 ./MicroSemi_Code/drivers/mss_uart/mss_uart.o
                0x000021b0                MSS_UART_tx_complete
 .text.MSS_UART_get_rx
                0x00002240       0xdc ./MicroSemi_Code/drivers/mss_uart/mss_uart.o
                0x00002240                MSS_UART_get_rx
 .text.MSS_UART_enable_irq
                0x0000231c       0x7c ./MicroSemi_Code/drivers/mss_uart/mss_uart.o
                0x0000231c                MSS_UART_enable_irq
 .text.MSS_UART_disable_irq
                0x00002398       0x88 ./MicroSemi_Code/drivers/mss_uart/mss_uart.o
                0x00002398                MSS_UART_disable_irq
 .text.MSS_UART_isr
                0x00002420      0x11c ./MicroSemi_Code/drivers/mss_uart/mss_uart.o
 .text.default_tx_handler
                0x0000253c      0x108 ./MicroSemi_Code/drivers/mss_uart/mss_uart.o
 .text.MSS_UART_set_rx_handler
                0x00002644       0xa8 ./MicroSemi_Code/drivers/mss_uart/mss_uart.o
                0x00002644                MSS_UART_set_rx_handler
 .text.MSS_UART_set_loopback
                0x000026ec       0x70 ./MicroSemi_Code/drivers/mss_uart/mss_uart.o
                0x000026ec                MSS_UART_set_loopback
 .text.UART0_IRQHandler
                0x0000275c       0x2c ./MicroSemi_Code/drivers/mss_uart/mss_uart.o
                0x0000275c                UART0_IRQHandler
 .text.UART1_IRQHandler
                0x00002788       0x2c ./MicroSemi_Code/drivers/mss_uart/mss_uart.o
                0x00002788                UART1_IRQHandler
 .text.MSS_UART_set_rxstatus_handler
                0x000027b4       0x84 ./MicroSemi_Code/drivers/mss_uart/mss_uart.o
                0x000027b4                MSS_UART_set_rxstatus_handler
 .text.MSS_UART_set_tx_handler
                0x00002838       0x94 ./MicroSemi_Code/drivers/mss_uart/mss_uart.o
                0x00002838                MSS_UART_set_tx_handler
 .text.MSS_UART_set_modemstatus_handler
                0x000028cc       0x84 ./MicroSemi_Code/drivers/mss_uart/mss_uart.o
                0x000028cc                MSS_UART_set_modemstatus_handler
 .text.MSS_UART_fill_tx_fifo
                0x00002950       0xd4 ./MicroSemi_Code/drivers/mss_uart/mss_uart.o
                0x00002950                MSS_UART_fill_tx_fifo
 .text.MSS_UART_get_rx_status
                0x00002a24       0x80 ./MicroSemi_Code/drivers/mss_uart/mss_uart.o
                0x00002a24                MSS_UART_get_rx_status
 .text.MSS_UART_get_modem_status
                0x00002aa4       0x60 ./MicroSemi_Code/drivers/mss_uart/mss_uart.o
                0x00002aa4                MSS_UART_get_modem_status
 .text.MSS_UART_get_tx_status
                0x00002b04       0x78 ./MicroSemi_Code/drivers/mss_uart/mss_uart.o
                0x00002b04                MSS_UART_get_tx_status
 .text          0x00002b7c        0x0 ./MicroSemi_Code/drivers/mss_i2c/mss_i2c.o
 .text.NVIC_EnableIRQ
                0x00002b7c       0x38 ./MicroSemi_Code/drivers/mss_i2c/mss_i2c.o
 .text.NVIC_DisableIRQ
                0x00002bb4       0x3c ./MicroSemi_Code/drivers/mss_i2c/mss_i2c.o
 .text.NVIC_ClearPendingIRQ
                0x00002bf0       0x3c ./MicroSemi_Code/drivers/mss_i2c/mss_i2c.o
 .text.MSS_I2C_init
                0x00002c2c      0x16c ./MicroSemi_Code/drivers/mss_i2c/mss_i2c.o
                0x00002c2c                MSS_I2C_init
 .text.MSS_I2C_write
                0x00002d98       0xf4 ./MicroSemi_Code/drivers/mss_i2c/mss_i2c.o
                0x00002d98                MSS_I2C_write
 .text.MSS_I2C_read
                0x00002e8c       0xf4 ./MicroSemi_Code/drivers/mss_i2c/mss_i2c.o
                0x00002e8c                MSS_I2C_read
 .text.MSS_I2C_write_read
                0x00002f80      0x134 ./MicroSemi_Code/drivers/mss_i2c/mss_i2c.o
                0x00002f80                MSS_I2C_write_read
 .text.MSS_I2C_get_status
                0x000030b4       0x3c ./MicroSemi_Code/drivers/mss_i2c/mss_i2c.o
                0x000030b4                MSS_I2C_get_status
 .text.MSS_I2C_wait_complete
                0x000030f0       0x4c ./MicroSemi_Code/drivers/mss_i2c/mss_i2c.o
                0x000030f0                MSS_I2C_wait_complete
 .text.MSS_I2C_system_tick
                0x0000313c       0x5c ./MicroSemi_Code/drivers/mss_i2c/mss_i2c.o
                0x0000313c                MSS_I2C_system_tick
 .text.MSS_I2C_set_slave_tx_buffer
                0x00003198       0x58 ./MicroSemi_Code/drivers/mss_i2c/mss_i2c.o
                0x00003198                MSS_I2C_set_slave_tx_buffer
 .text.MSS_I2C_set_slave_rx_buffer
                0x000031f0       0x58 ./MicroSemi_Code/drivers/mss_i2c/mss_i2c.o
                0x000031f0                MSS_I2C_set_slave_rx_buffer
 .text.MSS_I2C_set_slave_mem_offset_length
                0x00003248       0x54 ./MicroSemi_Code/drivers/mss_i2c/mss_i2c.o
                0x00003248                MSS_I2C_set_slave_mem_offset_length
 .text.MSS_I2C_register_write_handler
                0x0000329c       0x38 ./MicroSemi_Code/drivers/mss_i2c/mss_i2c.o
                0x0000329c                MSS_I2C_register_write_handler
 .text.MSS_I2C_enable_slave
                0x000032d4       0x5c ./MicroSemi_Code/drivers/mss_i2c/mss_i2c.o
                0x000032d4                MSS_I2C_enable_slave
 .text.MSS_I2C_disable_slave
                0x00003330       0x50 ./MicroSemi_Code/drivers/mss_i2c/mss_i2c.o
                0x00003330                MSS_I2C_disable_slave
 .text.enable_slave_if_required
                0x00003380       0x28 ./MicroSemi_Code/drivers/mss_i2c/mss_i2c.o
 .text.mss_i2c_isr
                0x000033a8      0x8f4 ./MicroSemi_Code/drivers/mss_i2c/mss_i2c.o
 .text.MSS_I2C_smbus_init
                0x00003c9c       0x28 ./MicroSemi_Code/drivers/mss_i2c/mss_i2c.o
                0x00003c9c                MSS_I2C_smbus_init
 .text.MSS_I2C_enable_smbus_irq
                0x00003cc4       0xe4 ./MicroSemi_Code/drivers/mss_i2c/mss_i2c.o
                0x00003cc4                MSS_I2C_enable_smbus_irq
 .text.MSS_I2C_disable_smbus_irq
                0x00003da8       0xc4 ./MicroSemi_Code/drivers/mss_i2c/mss_i2c.o
                0x00003da8                MSS_I2C_disable_smbus_irq
 .text.MSS_I2C_suspend_smbus_slave
                0x00003e6c       0x20 ./MicroSemi_Code/drivers/mss_i2c/mss_i2c.o
                0x00003e6c                MSS_I2C_suspend_smbus_slave
 .text.MSS_I2C_resume_smbus_slave
                0x00003e8c       0x20 ./MicroSemi_Code/drivers/mss_i2c/mss_i2c.o
                0x00003e8c                MSS_I2C_resume_smbus_slave
 .text.MSS_I2C_reset_smbus
                0x00003eac       0x20 ./MicroSemi_Code/drivers/mss_i2c/mss_i2c.o
                0x00003eac                MSS_I2C_reset_smbus
 .text.MSS_I2C_set_smbus_alert
                0x00003ecc       0x20 ./MicroSemi_Code/drivers/mss_i2c/mss_i2c.o
                0x00003ecc                MSS_I2C_set_smbus_alert
 .text.MSS_I2C_clear_smbus_alert
                0x00003eec       0x20 ./MicroSemi_Code/drivers/mss_i2c/mss_i2c.o
                0x00003eec                MSS_I2C_clear_smbus_alert
 .text.MSS_I2C_set_gca
                0x00003f0c       0x20 ./MicroSemi_Code/drivers/mss_i2c/mss_i2c.o
                0x00003f0c                MSS_I2C_set_gca
 .text.MSS_I2C_clear_gca
                0x00003f2c       0x20 ./MicroSemi_Code/drivers/mss_i2c/mss_i2c.o
                0x00003f2c                MSS_I2C_clear_gca
 .text.MSS_I2C_set_user_data
                0x00003f4c       0x1c ./MicroSemi_Code/drivers/mss_i2c/mss_i2c.o
                0x00003f4c                MSS_I2C_set_user_data
 .text.MSS_I2C_get_user_data
                0x00003f68       0x18 ./MicroSemi_Code/drivers/mss_i2c/mss_i2c.o
                0x00003f68                MSS_I2C_get_user_data
 .text.disable_interrupts
                0x00003f80       0x24 ./MicroSemi_Code/drivers/mss_i2c/mss_i2c.o
 .text.restore_interrupts
                0x00003fa4       0x18 ./MicroSemi_Code/drivers/mss_i2c/mss_i2c.o
 .text.I2C0_IRQHandler
                0x00003fbc       0x2c ./MicroSemi_Code/drivers/mss_i2c/mss_i2c.o
                0x00003fbc                I2C0_IRQHandler
 .text.I2C1_IRQHandler
                0x00003fe8       0x2c ./MicroSemi_Code/drivers/mss_i2c/mss_i2c.o
                0x00003fe8                I2C1_IRQHandler
 .text          0x00004014        0x0 ./MicroSemi_Code/drivers/mss_gpio/mss_gpio.o
 .text.NVIC_EnableIRQ
                0x00004014       0x38 ./MicroSemi_Code/drivers/mss_gpio/mss_gpio.o
 .text.NVIC_ClearPendingIRQ
                0x0000404c       0x3c ./MicroSemi_Code/drivers/mss_gpio/mss_gpio.o
 .text.MSS_GPIO_init
                0x00004088       0x6c ./MicroSemi_Code/drivers/mss_gpio/mss_gpio.o
                0x00004088                MSS_GPIO_init
 .text.MSS_GPIO_config
                0x000040f4       0x3c ./MicroSemi_Code/drivers/mss_gpio/mss_gpio.o
                0x000040f4                MSS_GPIO_config
 .text.MSS_GPIO_set_output
                0x00004130       0x40 ./MicroSemi_Code/drivers/mss_gpio/mss_gpio.o
                0x00004130                MSS_GPIO_set_output
 .text.MSS_GPIO_drive_inout
                0x00004170      0x128 ./MicroSemi_Code/drivers/mss_gpio/mss_gpio.o
                0x00004170                MSS_GPIO_drive_inout
 .text.MSS_GPIO_enable_irq
                0x00004298       0x64 ./MicroSemi_Code/drivers/mss_gpio/mss_gpio.o
                0x00004298                MSS_GPIO_enable_irq
 .text.MSS_GPIO_disable_irq
                0x000042fc       0x50 ./MicroSemi_Code/drivers/mss_gpio/mss_gpio.o
                0x000042fc                MSS_GPIO_disable_irq
 .text.MSS_GPIO_clear_irq
                0x0000434c       0x50 ./MicroSemi_Code/drivers/mss_gpio/mss_gpio.o
                0x0000434c                MSS_GPIO_clear_irq
 .text          0x0000439c        0x0 ./MicroSemi_Code/drivers/mss_ethernet_mac/crc32.o
 .text.mss_mac_crc32
                0x0000439c       0x60 ./MicroSemi_Code/drivers/mss_ethernet_mac/crc32.o
                0x0000439c                mss_mac_crc32
 .text.mss_ethernet_crc
                0x000043fc       0x24 ./MicroSemi_Code/drivers/mss_ethernet_mac/crc32.o
                0x000043fc                mss_ethernet_crc
 .text          0x00004420        0x0 ./MicroSemi_Code/drivers/mss_ethernet_mac/mss_ethernet_mac.o
 .text.MSS_MAC_init
                0x00004420      0x358 ./MicroSemi_Code/drivers/mss_ethernet_mac/mss_ethernet_mac.o
                0x00004420                MSS_MAC_init
 .text.MSS_MAC_configure
                0x00004778      0x248 ./MicroSemi_Code/drivers/mss_ethernet_mac/mss_ethernet_mac.o
                0x00004778                MSS_MAC_configure
 .text.MSS_MAC_get_configuration
                0x000049c0      0x144 ./MicroSemi_Code/drivers/mss_ethernet_mac/mss_ethernet_mac.o
                0x000049c0                MSS_MAC_get_configuration
 .text.MSS_MAC_tx_packet
                0x00004b04      0x544 ./MicroSemi_Code/drivers/mss_ethernet_mac/mss_ethernet_mac.o
                0x00004b04                MSS_MAC_tx_packet
 .text.MSS_MAC_rx_pckt_size
                0x00005048       0x74 ./MicroSemi_Code/drivers/mss_ethernet_mac/mss_ethernet_mac.o
                0x00005048                MSS_MAC_rx_pckt_size
 .text.MSS_MAC_rx_packet
                0x000050bc       0xf0 ./MicroSemi_Code/drivers/mss_ethernet_mac/mss_ethernet_mac.o
                0x000050bc                MSS_MAC_rx_packet
 .text.MSS_MAC_rx_packet_ptrset
                0x000051ac      0x134 ./MicroSemi_Code/drivers/mss_ethernet_mac/mss_ethernet_mac.o
                0x000051ac                MSS_MAC_rx_packet_ptrset
 .text.MSS_MAC_link_status
                0x000052e0       0x30 ./MicroSemi_Code/drivers/mss_ethernet_mac/mss_ethernet_mac.o
                0x000052e0                MSS_MAC_link_status
 .text.MSS_MAC_auto_setup_link
                0x00005310       0xd0 ./MicroSemi_Code/drivers/mss_ethernet_mac/mss_ethernet_mac.o
                0x00005310                MSS_MAC_auto_setup_link
 .text.MSS_MAC_set_mac_address
                0x000053e0       0xa4 ./MicroSemi_Code/drivers/mss_ethernet_mac/mss_ethernet_mac.o
                0x000053e0                MSS_MAC_set_mac_address
 .text.MSS_MAC_get_mac_address
                0x00005484       0x20 ./MicroSemi_Code/drivers/mss_ethernet_mac/mss_ethernet_mac.o
                0x00005484                MSS_MAC_get_mac_address
 .text.MSS_MAC_set_mac_filters
                0x000054a4      0x1b8 ./MicroSemi_Code/drivers/mss_ethernet_mac/mss_ethernet_mac.o
                0x000054a4                MSS_MAC_set_mac_filters
 .text.EthernetMAC_IRQHandler
                0x0000565c      0x13c ./MicroSemi_Code/drivers/mss_ethernet_mac/mss_ethernet_mac.o
                0x0000565c                EthernetMAC_IRQHandler
 .text.MSS_MAC_set_callback
                0x00005798       0x70 ./MicroSemi_Code/drivers/mss_ethernet_mac/mss_ethernet_mac.o
                0x00005798                MSS_MAC_set_callback
 .text.MSS_MAC_last_error
                0x00005808       0x54 ./MicroSemi_Code/drivers/mss_ethernet_mac/mss_ethernet_mac.o
                0x00005808                MSS_MAC_last_error
 .text.MSS_MAC_get_statistics
                0x0000585c      0x2b4 ./MicroSemi_Code/drivers/mss_ethernet_mac/mss_ethernet_mac.o
                0x0000585c                MSS_MAC_get_statistics
 .text.MSS_MAC_prepare_rx_descriptor
                0x00005b10      0x428 ./MicroSemi_Code/drivers/mss_ethernet_mac/mss_ethernet_mac.o
                0x00005b10                MSS_MAC_prepare_rx_descriptor
 .text.MAC_send_setup_frame
                0x00005f38      0x36c ./MicroSemi_Code/drivers/mss_ethernet_mac/mss_ethernet_mac.o
 .text.MAC_stop_transmission
                0x000062a4       0x60 ./MicroSemi_Code/drivers/mss_ethernet_mac/mss_ethernet_mac.o
 .text.MAC_start_transmission
                0x00006304       0x1c ./MicroSemi_Code/drivers/mss_ethernet_mac/mss_ethernet_mac.o
 .text.MAC_stop_receiving
                0x00006320       0x60 ./MicroSemi_Code/drivers/mss_ethernet_mac/mss_ethernet_mac.o
 .text.MAC_start_receiving
                0x00006380       0x1c ./MicroSemi_Code/drivers/mss_ethernet_mac/mss_ethernet_mac.o
 .text.MAC_dismiss_bad_frames
                0x0000639c       0xa4 ./MicroSemi_Code/drivers/mss_ethernet_mac/mss_ethernet_mac.o
 .text.MAC_set_time_out
                0x00006440       0x50 ./MicroSemi_Code/drivers/mss_ethernet_mac/mss_ethernet_mac.o
 .text.MAC_get_time_out
                0x00006490       0xf4 ./MicroSemi_Code/drivers/mss_ethernet_mac/mss_ethernet_mac.o
 .text.MAC_memset
                0x00006584       0x38 ./MicroSemi_Code/drivers/mss_ethernet_mac/mss_ethernet_mac.o
 .text.MAC_memset_All
                0x000065bc      0x448 ./MicroSemi_Code/drivers/mss_ethernet_mac/mss_ethernet_mac.o
 .text.MAC_memcpy
                0x00006a04       0x3c ./MicroSemi_Code/drivers/mss_ethernet_mac/mss_ethernet_mac.o
 .text.MSS_MAC_FreeTxBuffers
                0x00006a40       0x88 ./MicroSemi_Code/drivers/mss_ethernet_mac/mss_ethernet_mac.o
                0x00006a40                MSS_MAC_FreeTxBuffers
 .text.MAC_obtain_buffer
                0x00006ac8      0x178 ./MicroSemi_Code/drivers/mss_ethernet_mac/mss_ethernet_mac.o
 .text.MAC_release_buffer
                0x00006c40       0x70 ./MicroSemi_Code/drivers/mss_ethernet_mac/mss_ethernet_mac.o
 .text          0x00006cb0        0x0 ./MicroSemi_Code/drivers/mss_ethernet_mac/phy.o
 .text.MDIO_management_clock
                0x00006cb0       0x38 ./MicroSemi_Code/drivers/mss_ethernet_mac/phy.o
 .text.MDIO_send_cmd
                0x00006ce8      0x100 ./MicroSemi_Code/drivers/mss_ethernet_mac/phy.o
 .text.MDIO_read
                0x00006de8       0x70 ./MicroSemi_Code/drivers/mss_ethernet_mac/phy.o
 .text.MDIO_write
                0x00006e58       0x74 ./MicroSemi_Code/drivers/mss_ethernet_mac/phy.o
 .text.PHY_probe
                0x00006ecc       0x84 ./MicroSemi_Code/drivers/mss_ethernet_mac/phy.o
                0x00006ecc                PHY_probe
 .text.PHY_reset
                0x00006f50       0x20 ./MicroSemi_Code/drivers/mss_ethernet_mac/phy.o
                0x00006f50                PHY_reset
 .text.PHY_auto_negotiate
                0x00006f70       0x50 ./MicroSemi_Code/drivers/mss_ethernet_mac/phy.o
                0x00006f70                PHY_auto_negotiate
 .text.PHY_link_status
                0x00006fc0       0x30 ./MicroSemi_Code/drivers/mss_ethernet_mac/phy.o
                0x00006fc0                PHY_link_status
 .text.PHY_link_type
                0x00006ff0       0x48 ./MicroSemi_Code/drivers/mss_ethernet_mac/phy.o
                0x00006ff0                PHY_link_type
 .text.PHY_set_link_type
                0x00007038       0x58 ./MicroSemi_Code/drivers/mss_ethernet_mac/phy.o
                0x00007038                PHY_set_link_type
 .text.PHY_set_loopback
                0x00007090       0x58 ./MicroSemi_Code/drivers/mss_ethernet_mac/phy.o
                0x00007090                PHY_set_loopback
 .text          0x000070e8        0x0 ./MicroSemi_Code/drivers/mss_ace/ace_convert.o
 .text.ACE_get_channel_type
                0x000070e8       0x44 ./MicroSemi_Code/drivers/mss_ace/ace_convert.o
                0x000070e8                ACE_get_channel_type
 .text.ACE_convert_adc_input_to_mV
                0x0000712c       0x64 ./MicroSemi_Code/drivers/mss_ace/ace_convert.o
                0x0000712c                ACE_convert_adc_input_to_mV
 .text.ace_init_convert
                0x00007190      0x1b4 ./MicroSemi_Code/drivers/mss_ace/ace_convert.o
                0x00007190                ace_init_convert
 .text.ACE_convert_to_mV
                0x00007344      0x100 ./MicroSemi_Code/drivers/mss_ace/ace_convert.o
                0x00007344                ACE_convert_to_mV
 .text.ACE_convert_to_mA
                0x00007444       0xb4 ./MicroSemi_Code/drivers/mss_ace/ace_convert.o
                0x00007444                ACE_convert_to_mA
 .text.ACE_convert_to_uA
                0x000074f8       0xb0 ./MicroSemi_Code/drivers/mss_ace/ace_convert.o
                0x000074f8                ACE_convert_to_uA
 .text.ACE_convert_to_Kelvin
                0x000075a8       0x4c ./MicroSemi_Code/drivers/mss_ace/ace_convert.o
                0x000075a8                ACE_convert_to_Kelvin
 .text.ACE_convert_to_Celsius
                0x000075f4       0x3c ./MicroSemi_Code/drivers/mss_ace/ace_convert.o
                0x000075f4                ACE_convert_to_Celsius
 .text.ACE_convert_to_Fahrenheit
                0x00007630       0x58 ./MicroSemi_Code/drivers/mss_ace/ace_convert.o
                0x00007630                ACE_convert_to_Fahrenheit
 .text.ACE_get_channel_name
                0x00007688       0x38 ./MicroSemi_Code/drivers/mss_ace/ace_convert.o
                0x00007688                ACE_get_channel_name
 .text.ACE_convert_mV_to_adc_value
                0x000076c0       0xa0 ./MicroSemi_Code/drivers/mss_ace/ace_convert.o
                0x000076c0                ACE_convert_mV_to_adc_value
 .text.convert_mV_to_ppe_value
                0x00007760       0x7c ./MicroSemi_Code/drivers/mss_ace/ace_convert.o
 .text.ACE_convert_from_mV
                0x000077dc      0x110 ./MicroSemi_Code/drivers/mss_ace/ace_convert.o
                0x000077dc                ACE_convert_from_mV
 .text.ACE_convert_from_mA
                0x000078ec       0xc4 ./MicroSemi_Code/drivers/mss_ace/ace_convert.o
                0x000078ec                ACE_convert_from_mA
 .text.ACE_convert_from_uA
                0x000079b0       0xc4 ./MicroSemi_Code/drivers/mss_ace/ace_convert.o
                0x000079b0                ACE_convert_from_uA
 .text.ACE_convert_from_Kelvin
                0x00007a74       0x58 ./MicroSemi_Code/drivers/mss_ace/ace_convert.o
                0x00007a74                ACE_convert_from_Kelvin
 .text.ACE_convert_from_Celsius
                0x00007acc       0x4c ./MicroSemi_Code/drivers/mss_ace/ace_convert.o
                0x00007acc                ACE_convert_from_Celsius
 .text.ACE_convert_from_Fahrenheit
                0x00007b18       0x64 ./MicroSemi_Code/drivers/mss_ace/ace_convert.o
                0x00007b18                ACE_convert_from_Fahrenheit
 .text.ACE_translate_pdma_value
                0x00007b7c       0x34 ./MicroSemi_Code/drivers/mss_ace/ace_convert.o
                0x00007b7c                ACE_translate_pdma_value
 .text          0x00007bb0        0x0 ./MicroSemi_Code/drivers/mss_ace/ace_flags.o
 .text.NVIC_ClearPendingIRQ
                0x00007bb0       0x3c ./MicroSemi_Code/drivers/mss_ace/ace_flags.o
 .text.ace_init_flags
                0x00007bec        0xc ./MicroSemi_Code/drivers/mss_ace/ace_flags.o
                0x00007bec                ace_init_flags
 .text.ACE_is_hysteresis_flag
                0x00007bf8       0x20 ./MicroSemi_Code/drivers/mss_ace/ace_flags.o
                0x00007bf8                ACE_is_hysteresis_flag
 .text.ACE_is_under_flag
                0x00007c18       0x20 ./MicroSemi_Code/drivers/mss_ace/ace_flags.o
                0x00007c18                ACE_is_under_flag
 .text.ACE_set_flag_threshold
                0x00007c38       0x18 ./MicroSemi_Code/drivers/mss_ace/ace_flags.o
                0x00007c38                ACE_set_flag_threshold
 .text.ACE_set_flag_assertion
                0x00007c50       0x18 ./MicroSemi_Code/drivers/mss_ace/ace_flags.o
                0x00007c50                ACE_set_flag_assertion
 .text.ACE_set_flag_deassertion
                0x00007c68       0x18 ./MicroSemi_Code/drivers/mss_ace/ace_flags.o
                0x00007c68                ACE_set_flag_deassertion
 .text.ACE_set_flag_hysteresis
                0x00007c80       0x18 ./MicroSemi_Code/drivers/mss_ace/ace_flags.o
                0x00007c80                ACE_set_flag_hysteresis
 .text.ACE_set_channel_hysteresis
                0x00007c98       0x18 ./MicroSemi_Code/drivers/mss_ace/ace_flags.o
                0x00007c98                ACE_set_channel_hysteresis
 .text.ACE_get_flag_handle
                0x00007cb0       0x1c ./MicroSemi_Code/drivers/mss_ace/ace_flags.o
                0x00007cb0                ACE_get_flag_handle
 .text.ACE_get_flag_status
                0x00007ccc       0x20 ./MicroSemi_Code/drivers/mss_ace/ace_flags.o
                0x00007ccc                ACE_get_flag_status
 .text.ACE_get_flag_name
                0x00007cec       0x20 ./MicroSemi_Code/drivers/mss_ace/ace_flags.o
                0x00007cec                ACE_get_flag_name
 .text.ACE_get_flag_channel
                0x00007d0c       0x20 ./MicroSemi_Code/drivers/mss_ace/ace_flags.o
                0x00007d0c                ACE_get_flag_channel
 .text.ACE_get_channel_flag_count
                0x00007d2c       0x20 ./MicroSemi_Code/drivers/mss_ace/ace_flags.o
                0x00007d2c                ACE_get_channel_flag_count
 .text.ACE_get_channel_first_flag
                0x00007d4c       0x20 ./MicroSemi_Code/drivers/mss_ace/ace_flags.o
                0x00007d4c                ACE_get_channel_first_flag
 .text.ACE_get_channel_next_flag
                0x00007d6c       0x20 ./MicroSemi_Code/drivers/mss_ace/ace_flags.o
                0x00007d6c                ACE_get_channel_next_flag
 .text.ACE_enable_channel_flags_irq
                0x00007d8c       0x14 ./MicroSemi_Code/drivers/mss_ace/ace_flags.o
                0x00007d8c                ACE_enable_channel_flags_irq
 .text.ACE_disable_channel_flags_irq
                0x00007da0       0x14 ./MicroSemi_Code/drivers/mss_ace/ace_flags.o
                0x00007da0                ACE_disable_channel_flags_irq
 .text.ACE_clear_channel_flags_irq
                0x00007db4       0x14 ./MicroSemi_Code/drivers/mss_ace/ace_flags.o
                0x00007db4                ACE_clear_channel_flags_irq
 .text.ACE_enable_flag_irq
                0x00007dc8       0x14 ./MicroSemi_Code/drivers/mss_ace/ace_flags.o
                0x00007dc8                ACE_enable_flag_irq
 .text.ACE_disable_flag_irq
                0x00007ddc       0x14 ./MicroSemi_Code/drivers/mss_ace/ace_flags.o
                0x00007ddc                ACE_disable_flag_irq
 .text.ACE_clear_flag_irq
                0x00007df0       0x14 ./MicroSemi_Code/drivers/mss_ace/ace_flags.o
                0x00007df0                ACE_clear_flag_irq
 .text.ACE_register_flag_isr
                0x00007e04       0x18 ./MicroSemi_Code/drivers/mss_ace/ace_flags.o
                0x00007e04                ACE_register_flag_isr
 .text.ACE_register_channel_flags_isr
                0x00007e1c       0x18 ./MicroSemi_Code/drivers/mss_ace/ace_flags.o
                0x00007e1c                ACE_register_channel_flags_isr
 .text.ACE_register_global_flags_isr
                0x00007e34       0x14 ./MicroSemi_Code/drivers/mss_ace/ace_flags.o
                0x00007e34                ACE_register_global_flags_isr
 .text.process_flag_irq
                0x00007e48       0x14 ./MicroSemi_Code/drivers/mss_ace/ace_flags.o
 .text.ACE_PPE_Flag0_IRQHandler
                0x00007e5c       0x28 ./MicroSemi_Code/drivers/mss_ace/ace_flags.o
                0x00007e5c                ACE_PPE_Flag0_IRQHandler
 .text.ACE_PPE_Flag1_IRQHandler
                0x00007e84       0x28 ./MicroSemi_Code/drivers/mss_ace/ace_flags.o
                0x00007e84                ACE_PPE_Flag1_IRQHandler
 .text.ACE_PPE_Flag2_IRQHandler
                0x00007eac       0x28 ./MicroSemi_Code/drivers/mss_ace/ace_flags.o
                0x00007eac                ACE_PPE_Flag2_IRQHandler
 .text.ACE_PPE_Flag3_IRQHandler
                0x00007ed4       0x28 ./MicroSemi_Code/drivers/mss_ace/ace_flags.o
                0x00007ed4                ACE_PPE_Flag3_IRQHandler
 .text.ACE_PPE_Flag4_IRQHandler
                0x00007efc       0x28 ./MicroSemi_Code/drivers/mss_ace/ace_flags.o
                0x00007efc                ACE_PPE_Flag4_IRQHandler
 .text.ACE_PPE_Flag5_IRQHandler
                0x00007f24       0x28 ./MicroSemi_Code/drivers/mss_ace/ace_flags.o
                0x00007f24                ACE_PPE_Flag5_IRQHandler
 .text.ACE_PPE_Flag6_IRQHandler
                0x00007f4c       0x28 ./MicroSemi_Code/drivers/mss_ace/ace_flags.o
                0x00007f4c                ACE_PPE_Flag6_IRQHandler
 .text.ACE_PPE_Flag7_IRQHandler
                0x00007f74       0x28 ./MicroSemi_Code/drivers/mss_ace/ace_flags.o
                0x00007f74                ACE_PPE_Flag7_IRQHandler
 .text.ACE_PPE_Flag8_IRQHandler
                0x00007f9c       0x28 ./MicroSemi_Code/drivers/mss_ace/ace_flags.o
                0x00007f9c                ACE_PPE_Flag8_IRQHandler
 .text.ACE_PPE_Flag9_IRQHandler
                0x00007fc4       0x28 ./MicroSemi_Code/drivers/mss_ace/ace_flags.o
                0x00007fc4                ACE_PPE_Flag9_IRQHandler
 .text.ACE_PPE_Flag10_IRQHandler
                0x00007fec       0x28 ./MicroSemi_Code/drivers/mss_ace/ace_flags.o
                0x00007fec                ACE_PPE_Flag10_IRQHandler
 .text.ACE_PPE_Flag11_IRQHandler
                0x00008014       0x28 ./MicroSemi_Code/drivers/mss_ace/ace_flags.o
                0x00008014                ACE_PPE_Flag11_IRQHandler
 .text.ACE_PPE_Flag12_IRQHandler
                0x0000803c       0x28 ./MicroSemi_Code/drivers/mss_ace/ace_flags.o
                0x0000803c                ACE_PPE_Flag12_IRQHandler
 .text.ACE_PPE_Flag13_IRQHandler
                0x00008064       0x28 ./MicroSemi_Code/drivers/mss_ace/ace_flags.o
                0x00008064                ACE_PPE_Flag13_IRQHandler
 .text.ACE_PPE_Flag14_IRQHandler
                0x0000808c       0x28 ./MicroSemi_Code/drivers/mss_ace/ace_flags.o
                0x0000808c                ACE_PPE_Flag14_IRQHandler
 .text.ACE_PPE_Flag15_IRQHandler
                0x000080b4       0x28 ./MicroSemi_Code/drivers/mss_ace/ace_flags.o
                0x000080b4                ACE_PPE_Flag15_IRQHandler
 .text.ACE_PPE_Flag16_IRQHandler
                0x000080dc       0x28 ./MicroSemi_Code/drivers/mss_ace/ace_flags.o
                0x000080dc                ACE_PPE_Flag16_IRQHandler
 .text.ACE_PPE_Flag17_IRQHandler
                0x00008104       0x28 ./MicroSemi_Code/drivers/mss_ace/ace_flags.o
                0x00008104                ACE_PPE_Flag17_IRQHandler
 .text.ACE_PPE_Flag18_IRQHandler
                0x0000812c       0x28 ./MicroSemi_Code/drivers/mss_ace/ace_flags.o
                0x0000812c                ACE_PPE_Flag18_IRQHandler
 .text.ACE_PPE_Flag19_IRQHandler
                0x00008154       0x28 ./MicroSemi_Code/drivers/mss_ace/ace_flags.o
                0x00008154                ACE_PPE_Flag19_IRQHandler
 .text.ACE_PPE_Flag20_IRQHandler
                0x0000817c       0x28 ./MicroSemi_Code/drivers/mss_ace/ace_flags.o
                0x0000817c                ACE_PPE_Flag20_IRQHandler
 .text.ACE_PPE_Flag21_IRQHandler
                0x000081a4       0x28 ./MicroSemi_Code/drivers/mss_ace/ace_flags.o
                0x000081a4                ACE_PPE_Flag21_IRQHandler
 .text.ACE_PPE_Flag22_IRQHandler
                0x000081cc       0x28 ./MicroSemi_Code/drivers/mss_ace/ace_flags.o
                0x000081cc                ACE_PPE_Flag22_IRQHandler
 .text.ACE_PPE_Flag23_IRQHandler
                0x000081f4       0x28 ./MicroSemi_Code/drivers/mss_ace/ace_flags.o
                0x000081f4                ACE_PPE_Flag23_IRQHandler
 .text.ACE_PPE_Flag24_IRQHandler
                0x0000821c       0x28 ./MicroSemi_Code/drivers/mss_ace/ace_flags.o
                0x0000821c                ACE_PPE_Flag24_IRQHandler
 .text.ACE_PPE_Flag25_IRQHandler
                0x00008244       0x28 ./MicroSemi_Code/drivers/mss_ace/ace_flags.o
                0x00008244                ACE_PPE_Flag25_IRQHandler
 .text.ACE_PPE_Flag26_IRQHandler
                0x0000826c       0x28 ./MicroSemi_Code/drivers/mss_ace/ace_flags.o
                0x0000826c                ACE_PPE_Flag26_IRQHandler
 .text.ACE_PPE_Flag27_IRQHandler
                0x00008294       0x28 ./MicroSemi_Code/drivers/mss_ace/ace_flags.o
                0x00008294                ACE_PPE_Flag27_IRQHandler
 .text.ACE_PPE_Flag28_IRQHandler
                0x000082bc       0x28 ./MicroSemi_Code/drivers/mss_ace/ace_flags.o
                0x000082bc                ACE_PPE_Flag28_IRQHandler
 .text.ACE_PPE_Flag29_IRQHandler
                0x000082e4       0x28 ./MicroSemi_Code/drivers/mss_ace/ace_flags.o
                0x000082e4                ACE_PPE_Flag29_IRQHandler
 .text.ACE_PPE_Flag30_IRQHandler
                0x0000830c       0x28 ./MicroSemi_Code/drivers/mss_ace/ace_flags.o
                0x0000830c                ACE_PPE_Flag30_IRQHandler
 .text.ACE_PPE_Flag31_IRQHandler
                0x00008334       0x28 ./MicroSemi_Code/drivers/mss_ace/ace_flags.o
                0x00008334                ACE_PPE_Flag31_IRQHandler
 .text          0x0000835c        0x0 ./MicroSemi_Code/drivers/mss_ace/ace_sse.o
 .text.ACE_get_sse_seq_handle
                0x0000835c       0x84 ./MicroSemi_Code/drivers/mss_ace/ace_sse.o
                0x0000835c                ACE_get_sse_seq_handle
 .text.ACE_load_sse
                0x000083e0      0x130 ./MicroSemi_Code/drivers/mss_ace/ace_sse.o
                0x000083e0                ACE_load_sse
 .text.ACE_start_sse
                0x00008510      0x140 ./MicroSemi_Code/drivers/mss_ace/ace_sse.o
                0x00008510                ACE_start_sse
 .text.ACE_restart_sse
                0x00008650      0x124 ./MicroSemi_Code/drivers/mss_ace/ace_sse.o
                0x00008650                ACE_restart_sse
 .text.ACE_stop_sse
                0x00008774       0x54 ./MicroSemi_Code/drivers/mss_ace/ace_sse.o
                0x00008774                ACE_stop_sse
 .text.ACE_resume_sse
                0x000087c8       0x54 ./MicroSemi_Code/drivers/mss_ace/ace_sse.o
                0x000087c8                ACE_resume_sse
 .text.ACE_enable_sse_irq
                0x0000881c       0x48 ./MicroSemi_Code/drivers/mss_ace/ace_sse.o
                0x0000881c                ACE_enable_sse_irq
 .text.ACE_disable_sse_irq
                0x00008864       0x64 ./MicroSemi_Code/drivers/mss_ace/ace_sse.o
                0x00008864                ACE_disable_sse_irq
 .text.ACE_clear_sse_irq
                0x000088c8       0x6c ./MicroSemi_Code/drivers/mss_ace/ace_sse.o
                0x000088c8                ACE_clear_sse_irq
 .text.ACE_clear_sample_pipeline
                0x00008934      0x178 ./MicroSemi_Code/drivers/mss_ace/ace_sse.o
                0x00008934                ACE_clear_sample_pipeline
 .text          0x00008aac        0x0 ./MicroSemi_Code/drivers/mss_ace/ace_transform.o
 .text.ACE_get_default_m_factor
                0x00008aac       0x30 ./MicroSemi_Code/drivers/mss_ace/ace_transform.o
                0x00008aac                ACE_get_default_m_factor
 .text.ACE_get_default_c_offset
                0x00008adc       0x34 ./MicroSemi_Code/drivers/mss_ace/ace_transform.o
                0x00008adc                ACE_get_default_c_offset
 .text.ACE_set_linear_transform
                0x00008b10      0x17c ./MicroSemi_Code/drivers/mss_ace/ace_transform.o
                0x00008b10                ACE_set_linear_transform
 .text.extend_sign
                0x00008c8c       0x30 ./MicroSemi_Code/drivers/mss_ace/ace_transform.o
                0x00008c8c                extend_sign
 .text.adjust_to_24bit_ace_format
                0x00008cbc       0x80 ./MicroSemi_Code/drivers/mss_ace/ace_transform.o
                0x00008cbc                adjust_to_24bit_ace_format
 .text.adjust_to_16bit_ace_format
                0x00008d3c       0x80 ./MicroSemi_Code/drivers/mss_ace/ace_transform.o
                0x00008d3c                adjust_to_16bit_ace_format
 .text.get_calibration
                0x00008dbc      0x380 ./MicroSemi_Code/drivers/mss_ace/ace_transform.o
                0x00008dbc                get_calibration
 .text.write_transform_coefficients
                0x0000913c       0xac ./MicroSemi_Code/drivers/mss_ace/ace_transform.o
                0x0000913c                write_transform_coefficients
 .text          0x000091e8        0x0 ./MicroSemi_Code/drivers/mss_ace/mss_ace.o
 .text.ACE_init
                0x000091e8       0x10 ./MicroSemi_Code/drivers/mss_ace/mss_ace.o
                0x000091e8                ACE_init
 .text.ACE_start_adc
                0x000091f8       0x2c ./MicroSemi_Code/drivers/mss_ace/mss_ace.o
                0x000091f8                ACE_start_adc
 .text.ACE_get_adc_result
                0x00009224       0x64 ./MicroSemi_Code/drivers/mss_ace/mss_ace.o
                0x00009224                ACE_get_adc_result
 .text.ACE_configure_sdd
                0x00009288      0x1a0 ./MicroSemi_Code/drivers/mss_ace/mss_ace.o
                0x00009288                ACE_configure_sdd
 .text.ACE_enable_sdd
                0x00009428       0x48 ./MicroSemi_Code/drivers/mss_ace/mss_ace.o
                0x00009428                ACE_enable_sdd
 .text.ACE_disable_sdd
                0x00009470       0x48 ./MicroSemi_Code/drivers/mss_ace/mss_ace.o
                0x00009470                ACE_disable_sdd
 .text.ACE_set_sdd_value
                0x000094b8       0x4c ./MicroSemi_Code/drivers/mss_ace/mss_ace.o
                0x000094b8                ACE_set_sdd_value
 .text.ACE_set_sdd_value_sync
                0x00009504       0xd0 ./MicroSemi_Code/drivers/mss_ace/mss_ace.o
                0x00009504                ACE_set_sdd_value_sync
 .text.ACE_set_comp_reference
                0x000095d4      0x1b4 ./MicroSemi_Code/drivers/mss_ace/mss_ace.o
                0x000095d4                ACE_set_comp_reference
 .text.ACE_set_comp_hysteresis
                0x00009788      0x128 ./MicroSemi_Code/drivers/mss_ace/mss_ace.o
                0x00009788                ACE_set_comp_hysteresis
 .text.ACE_enable_comp
                0x000098b0       0xfc ./MicroSemi_Code/drivers/mss_ace/mss_ace.o
                0x000098b0                ACE_enable_comp
 .text.ACE_disable_comp
                0x000099ac       0xf8 ./MicroSemi_Code/drivers/mss_ace/mss_ace.o
                0x000099ac                ACE_disable_comp
 .text.ACE_enable_comp_rise_irq
                0x00009aa4       0x50 ./MicroSemi_Code/drivers/mss_ace/mss_ace.o
                0x00009aa4                ACE_enable_comp_rise_irq
 .text.ACE_disable_comp_rise_irq
                0x00009af4       0x70 ./MicroSemi_Code/drivers/mss_ace/mss_ace.o
                0x00009af4                ACE_disable_comp_rise_irq
 .text.ACE_clear_comp_rise_irq
                0x00009b64       0x6c ./MicroSemi_Code/drivers/mss_ace/mss_ace.o
                0x00009b64                ACE_clear_comp_rise_irq
 .text.ACE_enable_comp_fall_irq
                0x00009bd0       0x50 ./MicroSemi_Code/drivers/mss_ace/mss_ace.o
                0x00009bd0                ACE_enable_comp_fall_irq
 .text.ACE_disable_comp_fall_irq
                0x00009c20       0x70 ./MicroSemi_Code/drivers/mss_ace/mss_ace.o
                0x00009c20                ACE_disable_comp_fall_irq
 .text.ACE_clear_comp_fall_irq
                0x00009c90       0x6c ./MicroSemi_Code/drivers/mss_ace/mss_ace.o
                0x00009c90                ACE_clear_comp_fall_irq
 .text.ACE_get_comp_status
                0x00009cfc       0x20 ./MicroSemi_Code/drivers/mss_ace/mss_ace.o
                0x00009cfc                ACE_get_comp_status
 .text.ACE_get_channel_count
                0x00009d1c       0x10 ./MicroSemi_Code/drivers/mss_ace/mss_ace.o
                0x00009d1c                ACE_get_channel_count
 .text.ACE_get_first_channel
                0x00009d2c       0x1c ./MicroSemi_Code/drivers/mss_ace/mss_ace.o
                0x00009d2c                ACE_get_first_channel
 .text.ACE_get_next_channel
                0x00009d48       0x2c ./MicroSemi_Code/drivers/mss_ace/mss_ace.o
                0x00009d48                ACE_get_next_channel
 .text.ACE_get_channel_handle
                0x00009d74       0x74 ./MicroSemi_Code/drivers/mss_ace/mss_ace.o
                0x00009d74                ACE_get_channel_handle
 .text.ACE_get_input_channel_handle
                0x00009de8       0x54 ./MicroSemi_Code/drivers/mss_ace/mss_ace.o
                0x00009de8                ACE_get_input_channel_handle
 .text.ACE_get_ppe_sample
                0x00009e3c       0x54 ./MicroSemi_Code/drivers/mss_ace/mss_ace.o
                0x00009e3c                ACE_get_ppe_sample
 .text          0x00009e90        0x0 ./MicroSemi_Code/CMSIS/brownout_isr.o
 .text.BrownOut_1_5V_IRQHandler
                0x00009e90       0xb0 ./MicroSemi_Code/CMSIS/brownout_isr.o
                0x00009e90                BrownOut_1_5V_IRQHandler
 .text          0x00009f40        0x0 ./MicroSemi_Code/CMSIS/core_cm3.o
 .text.__get_PSP
                0x00009f40       0x10 ./MicroSemi_Code/CMSIS/core_cm3.o
                0x00009f40                __get_PSP
 .text.__set_PSP
                0x00009f50        0x8 ./MicroSemi_Code/CMSIS/core_cm3.o
                0x00009f50                __set_PSP
 .text.__get_MSP
                0x00009f58       0x10 ./MicroSemi_Code/CMSIS/core_cm3.o
                0x00009f58                __get_MSP
 .text.__set_MSP
                0x00009f68        0x8 ./MicroSemi_Code/CMSIS/core_cm3.o
                0x00009f68                __set_MSP
 .text.__get_BASEPRI
                0x00009f70       0x20 ./MicroSemi_Code/CMSIS/core_cm3.o
                0x00009f70                __get_BASEPRI
 .text.__set_BASEPRI
                0x00009f90       0x18 ./MicroSemi_Code/CMSIS/core_cm3.o
                0x00009f90                __set_BASEPRI
 .text.__get_PRIMASK
                0x00009fa8       0x20 ./MicroSemi_Code/CMSIS/core_cm3.o
                0x00009fa8                __get_PRIMASK
 .text.__set_PRIMASK
                0x00009fc8       0x18 ./MicroSemi_Code/CMSIS/core_cm3.o
                0x00009fc8                __set_PRIMASK
 .text.__get_FAULTMASK
                0x00009fe0       0x20 ./MicroSemi_Code/CMSIS/core_cm3.o
                0x00009fe0                __get_FAULTMASK
 .text.__set_FAULTMASK
                0x0000a000       0x18 ./MicroSemi_Code/CMSIS/core_cm3.o
                0x0000a000                __set_FAULTMASK
 .text.__get_CONTROL
                0x0000a018       0x20 ./MicroSemi_Code/CMSIS/core_cm3.o
                0x0000a018                __get_CONTROL
 .text.__set_CONTROL
                0x0000a038       0x18 ./MicroSemi_Code/CMSIS/core_cm3.o
                0x0000a038                __set_CONTROL
 .text.__REV    0x0000a050       0x24 ./MicroSemi_Code/CMSIS/core_cm3.o
                0x0000a050                __REV
 .text.__REV16  0x0000a074       0x24 ./MicroSemi_Code/CMSIS/core_cm3.o
                0x0000a074                __REV16
 .text.__REVSH  0x0000a098       0x24 ./MicroSemi_Code/CMSIS/core_cm3.o
                0x0000a098                __REVSH
 .text.__RBIT   0x0000a0bc       0x24 ./MicroSemi_Code/CMSIS/core_cm3.o
                0x0000a0bc                __RBIT
 .text.__LDREXB
                0x0000a0e0       0x24 ./MicroSemi_Code/CMSIS/core_cm3.o
                0x0000a0e0                __LDREXB
 .text.__LDREXH
                0x0000a104       0x24 ./MicroSemi_Code/CMSIS/core_cm3.o
                0x0000a104                __LDREXH
 .text.__LDREXW
                0x0000a128       0x24 ./MicroSemi_Code/CMSIS/core_cm3.o
                0x0000a128                __LDREXW
 .text.__STREXB
                0x0000a14c       0x2c ./MicroSemi_Code/CMSIS/core_cm3.o
                0x0000a14c                __STREXB
 .text.__STREXH
                0x0000a178       0x2c ./MicroSemi_Code/CMSIS/core_cm3.o
                0x0000a178                __STREXH
 .text.__STREXW
                0x0000a1a4       0x28 ./MicroSemi_Code/CMSIS/core_cm3.o
                0x0000a1a4                __STREXW
 .text          0x0000a1cc        0x0 ./MicroSemi_Code/CMSIS/system_a2fxxxm3.o
 .text.SystemInit
                0x0000a1cc        0xc ./MicroSemi_Code/CMSIS/system_a2fxxxm3.o
                0x0000a1cc                SystemInit
 .text.SystemCoreClockUpdate
                0x0000a1d8      0x150 ./MicroSemi_Code/CMSIS/system_a2fxxxm3.o
                0x0000a1d8                SystemCoreClockUpdate
 .text.GetSystemClock
                0x0000a328       0xe8 ./MicroSemi_Code/CMSIS/system_a2fxxxm3.o
 .text          0x0000a410        0x0 ./MicroSemi_Code/CMSIS/startup_gcc/newlib_stubs.o
 .text._close   0x0000a410       0x18 ./MicroSemi_Code/CMSIS/startup_gcc/newlib_stubs.o
                0x0000a410                _close
 .text._execve  0x0000a428       0x28 ./MicroSemi_Code/CMSIS/startup_gcc/newlib_stubs.o
                0x0000a428                _execve
 .text._exit    0x0000a450        0xc ./MicroSemi_Code/CMSIS/startup_gcc/newlib_stubs.o
                0x0000a450                _exit
 .text._fork    0x0000a45c       0x18 ./MicroSemi_Code/CMSIS/startup_gcc/newlib_stubs.o
                0x0000a45c                _fork
 .text._fstat   0x0000a474       0x24 ./MicroSemi_Code/CMSIS/startup_gcc/newlib_stubs.o
                0x0000a474                _fstat
 .text._getpid  0x0000a498       0x10 ./MicroSemi_Code/CMSIS/startup_gcc/newlib_stubs.o
                0x0000a498                _getpid
 .text._isatty  0x0000a4a8       0x18 ./MicroSemi_Code/CMSIS/startup_gcc/newlib_stubs.o
                0x0000a4a8                _isatty
 .text._kill    0x0000a4c0       0x24 ./MicroSemi_Code/CMSIS/startup_gcc/newlib_stubs.o
                0x0000a4c0                _kill
 .text._link    0x0000a4e4       0x24 ./MicroSemi_Code/CMSIS/startup_gcc/newlib_stubs.o
                0x0000a4e4                _link
 .text._lseek   0x0000a508       0x1c ./MicroSemi_Code/CMSIS/startup_gcc/newlib_stubs.o
                0x0000a508                _lseek
 .text._open    0x0000a524       0x1c ./MicroSemi_Code/CMSIS/startup_gcc/newlib_stubs.o
                0x0000a524                _open
 .text._read    0x0000a540       0x1c ./MicroSemi_Code/CMSIS/startup_gcc/newlib_stubs.o
                0x0000a540                _read
 .text._write_r
                0x0000a55c       0x5c ./MicroSemi_Code/CMSIS/startup_gcc/newlib_stubs.o
                0x0000a55c                _write_r
 .text._sbrk    0x0000a5b8       0x94 ./MicroSemi_Code/CMSIS/startup_gcc/newlib_stubs.o
                0x0000a5b8                _sbrk
 .text._stat    0x0000a64c       0x24 ./MicroSemi_Code/CMSIS/startup_gcc/newlib_stubs.o
                0x0000a64c                _stat
 .text._times   0x0000a670       0x18 ./MicroSemi_Code/CMSIS/startup_gcc/newlib_stubs.o
                0x0000a670                _times
 .text._unlink  0x0000a688       0x24 ./MicroSemi_Code/CMSIS/startup_gcc/newlib_stubs.o
                0x0000a688                _unlink
 .text._wait    0x0000a6ac       0x24 ./MicroSemi_Code/CMSIS/startup_gcc/newlib_stubs.o
                0x0000a6ac                _wait
 .text          0x0000a6d0        0x0 ./MicroSemi_Code/CMSIS/startup_gcc/startup_a2fxxxm3.o
 .text          0x0000a6d0        0x0 ./Helpers/uart_helper.o
 .text.uart_string_print
                0x0000a6d0       0x24 ./Helpers/uart_helper.o
                0x0000a6d0                uart_string_print
 .text          0x0000a6f4        0x0 ./FreeTCPIP/psock.o
 .text.buf_setup
                0x0000a6f4       0x24 ./FreeTCPIP/psock.o
 .text.buf_bufdata
                0x0000a718      0x11c ./FreeTCPIP/psock.o
 .text.buf_bufto
                0x0000a834       0xa8 ./FreeTCPIP/psock.o
 .text.send_data
                0x0000a8dc       0x6c ./FreeTCPIP/psock.o
 .text.data_acked
                0x0000a948       0x88 ./FreeTCPIP/psock.o
 .text.psock_send
                0x0000a9d0       0x94 ./FreeTCPIP/psock.o
                0x0000a9d0                psock_send
 .text.psock_generator_send
                0x0000aa64       0xb8 ./FreeTCPIP/psock.o
                0x0000aa64                psock_generator_send
 .text.psock_datalen
                0x0000ab1c       0x24 ./FreeTCPIP/psock.o
                0x0000ab1c                psock_datalen
 .text.psock_newdata
                0x0000ab40       0x58 ./FreeTCPIP/psock.o
                0x0000ab40                psock_newdata
 .text.psock_readto
                0x0000ab98       0xc8 ./FreeTCPIP/psock.o
                0x0000ab98                psock_readto
 .text.psock_readbuf
                0x0000ac60       0xc4 ./FreeTCPIP/psock.o
                0x0000ac60                psock_readbuf
 .text.psock_init
                0x0000ad24       0x48 ./FreeTCPIP/psock.o
                0x0000ad24                psock_init
 .text          0x0000ad6c        0x0 ./FreeTCPIP/timer.o
 .text.timer_set
                0x0000ad6c       0x24 ./FreeTCPIP/timer.o
                0x0000ad6c                timer_set
 .text.timer_reset
                0x0000ad90       0x20 ./FreeTCPIP/timer.o
                0x0000ad90                timer_reset
 .text.timer_restart
                0x0000adb0       0x1c ./FreeTCPIP/timer.o
                0x0000adb0                timer_restart
 .text.timer_expired
                0x0000adcc       0x2c ./FreeTCPIP/timer.o
                0x0000adcc                timer_expired
 .text.timer_remaining
                0x0000adf8       0x28 ./FreeTCPIP/timer.o
                0x0000adf8                timer_remaining
 .text          0x0000ae20        0x0 ./FreeTCPIP/uip.o
 .text.uip_setipid
                0x0000ae20       0x20 ./FreeTCPIP/uip.o
                0x0000ae20                uip_setipid
 .text.uip_add32
                0x0000ae40      0x14c ./FreeTCPIP/uip.o
                0x0000ae40                uip_add32
 .text.chksum   0x0000af8c       0x98 ./FreeTCPIP/uip.o
 .text.uip_chksum
                0x0000b024       0x30 ./FreeTCPIP/uip.o
                0x0000b024                uip_chksum
 .text.uip_ipchksum
                0x0000b054       0x48 ./FreeTCPIP/uip.o
                0x0000b054                uip_ipchksum
 .text.upper_layer_chksum
                0x0000b09c       0xa8 ./FreeTCPIP/uip.o
 .text.uip_tcpchksum
                0x0000b144       0x14 ./FreeTCPIP/uip.o
                0x0000b144                uip_tcpchksum
 .text.uip_udpchksum
                0x0000b158       0x14 ./FreeTCPIP/uip.o
                0x0000b158                uip_udpchksum
 .text.uip_init
                0x0000b16c       0xcc ./FreeTCPIP/uip.o
                0x0000b16c                uip_init
 .text.uip_connect
                0x0000b238      0x1e0 ./FreeTCPIP/uip.o
                0x0000b238                uip_connect
 .text.uip_unlisten
                0x0000b418       0x88 ./FreeTCPIP/uip.o
                0x0000b418                uip_unlisten
 .text.uip_listen
                0x0000b4a0       0x84 ./FreeTCPIP/uip.o
                0x0000b4a0                uip_listen
 .text.uip_add_rcv_nxt
                0x0000b524       0x84 ./FreeTCPIP/uip.o
 .text.uip_process
                0x0000b5a8     0x21b0 ./FreeTCPIP/uip.o
                0x0000b5a8                uip_process
 .text.htons    0x0000d758       0x30 ./FreeTCPIP/uip.o
                0x0000d758                htons
 .text.htonl    0x0000d788       0x5c ./FreeTCPIP/uip.o
                0x0000d788                htonl
 .text.uip_send
                0x0000d7e4       0x84 ./FreeTCPIP/uip.o
                0x0000d7e4                uip_send
 .text          0x0000d868        0x0 ./FreeTCPIP/uip_arp.o
 .text.uip_arp_init
                0x0000d868       0x70 ./FreeTCPIP/uip_arp.o
                0x0000d868                uip_arp_init
 .text.uip_arp_timer
                0x0000d8d8       0xd4 ./FreeTCPIP/uip_arp.o
                0x0000d8d8                uip_arp_timer
 .text.uip_arp_update
                0x0000d9ac      0x290 ./FreeTCPIP/uip_arp.o
 .text.uip_arp_arpin
                0x0000dc3c      0x308 ./FreeTCPIP/uip_arp.o
                0x0000dc3c                uip_arp_arpin
 .text.uip_arp_out
                0x0000df44      0x488 ./FreeTCPIP/uip_arp.o
                0x0000df44                uip_arp_out
 .text          0x0000e3cc        0x0 ./FreeTCPIP/http_Common/http-strings.o
 .text          0x0000e3cc        0x0 ./FreeTCPIP/http_Common/httpd-fs.o
 .text.httpd_fs_strcmp
                0x0000e3cc       0x6c ./FreeTCPIP/http_Common/httpd-fs.o
 .text.httpd_fs_open
                0x0000e438       0x88 ./FreeTCPIP/http_Common/httpd-fs.o
                0x0000e438                httpd_fs_open
 .text.httpd_fs_init
                0x0000e4c0       0x38 ./FreeTCPIP/http_Common/httpd-fs.o
                0x0000e4c0                httpd_fs_init
 .text.httpd_fs_count
                0x0000e4f8       0x60 ./FreeTCPIP/http_Common/httpd-fs.o
                0x0000e4f8                httpd_fs_count
 .text          0x0000e558        0x0 ./FreeTCPIP/http_Common/httpd.o
 .text.generate_part_of_file
                0x0000e558       0x78 ./FreeTCPIP/http_Common/httpd.o
 .text.send_file
                0x0000e5d0       0x98 ./FreeTCPIP/http_Common/httpd.o
 .text.send_part_of_file
                0x0000e668       0x68 ./FreeTCPIP/http_Common/httpd.o
 .text.next_scriptstate
                0x0000e6d0       0x54 ./FreeTCPIP/http_Common/httpd.o
 .text.handle_script
                0x0000e724      0x234 ./FreeTCPIP/http_Common/httpd.o
 .text.send_headers
                0x0000e958      0x2d8 ./FreeTCPIP/http_Common/httpd.o
 .text.handle_output
                0x0000ec30      0x18c ./FreeTCPIP/http_Common/httpd.o
 .text.handle_input
                0x0000edbc      0x1d0 ./FreeTCPIP/http_Common/httpd.o
 .text.handle_connection
                0x0000ef8c       0x28 ./FreeTCPIP/http_Common/httpd.o
 .text.httpd_appcall
                0x0000efb4      0x118 ./FreeTCPIP/http_Common/httpd.o
                0x0000efb4                httpd_appcall
 .text.httpd_init
                0x0000f0cc       0x10 ./FreeTCPIP/http_Common/httpd.o
                0x0000f0cc                httpd_init
 .text          0x0000f0dc        0x0 ./FreeRTOS_Source/list.o
 .text.vListInitialise
                0x0000f0dc       0x48 ./FreeRTOS_Source/list.o
                0x0000f0dc                vListInitialise
 .text.vListInitialiseItem
                0x0000f124       0x1c ./FreeRTOS_Source/list.o
                0x0000f124                vListInitialiseItem
 .text.vListInsertEnd
                0x0000f140       0x48 ./FreeRTOS_Source/list.o
                0x0000f140                vListInsertEnd
 .text.vListInsert
                0x0000f188       0x74 ./FreeRTOS_Source/list.o
                0x0000f188                vListInsert
 .text.uxListRemove
                0x0000f1fc       0x58 ./FreeRTOS_Source/list.o
                0x0000f1fc                uxListRemove
 .text          0x0000f254        0x0 ./FreeRTOS_Source/queue.o
 .text.xQueueGenericReset
                0x0000f254       0xec ./FreeRTOS_Source/queue.o
                0x0000f254                xQueueGenericReset
 .text.xQueueGenericCreate
                0x0000f340       0x80 ./FreeRTOS_Source/queue.o
                0x0000f340                xQueueGenericCreate
 .text.prvInitialiseNewQueue
                0x0000f3c0       0x48 ./FreeRTOS_Source/queue.o
 .text.prvInitialiseMutex
                0x0000f408       0x40 ./FreeRTOS_Source/queue.o
 .text.xQueueCreateMutex
                0x0000f448       0x38 ./FreeRTOS_Source/queue.o
                0x0000f448                xQueueCreateMutex
 .text.xQueueGiveMutexRecursive
                0x0000f480       0x74 ./FreeRTOS_Source/queue.o
                0x0000f480                xQueueGiveMutexRecursive
 .text.xQueueTakeMutexRecursive
                0x0000f4f4       0x74 ./FreeRTOS_Source/queue.o
                0x0000f4f4                xQueueTakeMutexRecursive
 .text.xQueueGenericSend
                0x0000f568      0x230 ./FreeRTOS_Source/queue.o
                0x0000f568                xQueueGenericSend
 .text.xQueueGenericSendFromISR
                0x0000f798      0x144 ./FreeRTOS_Source/queue.o
                0x0000f798                xQueueGenericSendFromISR
 .text.xQueueGiveFromISR
                0x0000f8dc      0x12c ./FreeRTOS_Source/queue.o
                0x0000f8dc                xQueueGiveFromISR
 .text.xQueueReceive
                0x0000fa08      0x1ec ./FreeRTOS_Source/queue.o
                0x0000fa08                xQueueReceive
 .text.xQueueSemaphoreTake
                0x0000fbf4      0x240 ./FreeRTOS_Source/queue.o
                0x0000fbf4                xQueueSemaphoreTake
 .text.xQueuePeek
                0x0000fe34      0x1f0 ./FreeRTOS_Source/queue.o
                0x0000fe34                xQueuePeek
 .text.xQueueReceiveFromISR
                0x00010024      0x118 ./FreeRTOS_Source/queue.o
                0x00010024                xQueueReceiveFromISR
 .text.xQueuePeekFromISR
                0x0001013c       0xd4 ./FreeRTOS_Source/queue.o
                0x0001013c                xQueuePeekFromISR
 .text.uxQueueMessagesWaiting
                0x00010210       0x3c ./FreeRTOS_Source/queue.o
                0x00010210                uxQueueMessagesWaiting
 .text.uxQueueSpacesAvailable
                0x0001024c       0x48 ./FreeRTOS_Source/queue.o
                0x0001024c                uxQueueSpacesAvailable
 .text.uxQueueMessagesWaitingFromISR
                0x00010294       0x3c ./FreeRTOS_Source/queue.o
                0x00010294                uxQueueMessagesWaitingFromISR
 .text.vQueueDelete
                0x000102d0       0x34 ./FreeRTOS_Source/queue.o
                0x000102d0                vQueueDelete
 .text.uxQueueGetQueueNumber
                0x00010304       0x18 ./FreeRTOS_Source/queue.o
                0x00010304                uxQueueGetQueueNumber
 .text.vQueueSetQueueNumber
                0x0001031c       0x1c ./FreeRTOS_Source/queue.o
                0x0001031c                vQueueSetQueueNumber
 .text.ucQueueGetQueueType
                0x00010338       0x1c ./FreeRTOS_Source/queue.o
                0x00010338                ucQueueGetQueueType
 .text.prvGetDisinheritPriorityAfterTimeout
                0x00010354       0x34 ./FreeRTOS_Source/queue.o
 .text.prvCopyDataToQueue
                0x00010388       0xf0 ./FreeRTOS_Source/queue.o
 .text.prvCopyDataFromQueue
                0x00010478       0x50 ./FreeRTOS_Source/queue.o
 .text.prvUnlockQueue
                0x000104c8       0xac ./FreeRTOS_Source/queue.o
 .text.prvIsQueueEmpty
                0x00010574       0x34 ./FreeRTOS_Source/queue.o
 .text.xQueueIsQueueEmptyFromISR
                0x000105a8       0x4c ./FreeRTOS_Source/queue.o
                0x000105a8                xQueueIsQueueEmptyFromISR
 .text.prvIsQueueFull
                0x000105f4       0x38 ./FreeRTOS_Source/queue.o
 .text.xQueueIsQueueFullFromISR
                0x0001062c       0x50 ./FreeRTOS_Source/queue.o
                0x0001062c                xQueueIsQueueFullFromISR
 .text.vQueueWaitForMessageRestricted
                0x0001067c       0x74 ./FreeRTOS_Source/queue.o
                0x0001067c                vQueueWaitForMessageRestricted
 .text          0x000106f0        0x0 ./FreeRTOS_Source/tasks.o
 .text.xTaskCreate
                0x000106f0       0x94 ./FreeRTOS_Source/tasks.o
                0x000106f0                xTaskCreate
 .text.prvInitialiseNewTask
                0x00010784      0x148 ./FreeRTOS_Source/tasks.o
 .text.prvAddNewTaskToReadyList
                0x000108cc      0x13c ./FreeRTOS_Source/tasks.o
 .text.vTaskDelete
                0x00010a08      0x16c ./FreeRTOS_Source/tasks.o
                0x00010a08                vTaskDelete
 .text.vTaskDelayUntil
                0x00010b74      0x110 ./FreeRTOS_Source/tasks.o
                0x00010b74                vTaskDelayUntil
 .text.vTaskDelay
                0x00010c84       0x70 ./FreeRTOS_Source/tasks.o
                0x00010c84                vTaskDelay
 .text.eTaskGetState
                0x00010cf4       0xe4 ./FreeRTOS_Source/tasks.o
                0x00010cf4                eTaskGetState
 .text.uxTaskPriorityGet
                0x00010dd8       0x38 ./FreeRTOS_Source/tasks.o
                0x00010dd8                uxTaskPriorityGet
 .text.uxTaskPriorityGetFromISR
                0x00010e10       0x5c ./FreeRTOS_Source/tasks.o
                0x00010e10                uxTaskPriorityGetFromISR
 .text.vTaskPrioritySet
                0x00010e6c      0x1b0 ./FreeRTOS_Source/tasks.o
                0x00010e6c                vTaskPrioritySet
 .text.vTaskSuspend
                0x0001101c      0x168 ./FreeRTOS_Source/tasks.o
                0x0001101c                vTaskSuspend
 .text.prvTaskIsTaskSuspended
                0x00011184       0x68 ./FreeRTOS_Source/tasks.o
 .text.vTaskResume
                0x000111ec       0xdc ./FreeRTOS_Source/tasks.o
                0x000111ec                vTaskResume
 .text.xTaskResumeFromISR
                0x000112c8      0x108 ./FreeRTOS_Source/tasks.o
                0x000112c8                xTaskResumeFromISR
 .text.vTaskStartScheduler
                0x000113d0       0xb4 ./FreeRTOS_Source/tasks.o
                0x000113d0                vTaskStartScheduler
 .text.vTaskEndScheduler
                0x00011484       0x34 ./FreeRTOS_Source/tasks.o
                0x00011484                vTaskEndScheduler
 .text.vTaskSuspendAll
                0x000114b8       0x24 ./FreeRTOS_Source/tasks.o
                0x000114b8                vTaskSuspendAll
 .text.xTaskResumeAll
                0x000114dc      0x1a0 ./FreeRTOS_Source/tasks.o
                0x000114dc                xTaskResumeAll
 .text.xTaskGetTickCount
                0x0001167c       0x20 ./FreeRTOS_Source/tasks.o
                0x0001167c                xTaskGetTickCount
 .text.xTaskGetTickCountFromISR
                0x0001169c       0x28 ./FreeRTOS_Source/tasks.o
                0x0001169c                xTaskGetTickCountFromISR
 .text.uxTaskGetNumberOfTasks
                0x000116c4       0x18 ./FreeRTOS_Source/tasks.o
                0x000116c4                uxTaskGetNumberOfTasks
 .text.pcTaskGetName
                0x000116dc       0x4c ./FreeRTOS_Source/tasks.o
                0x000116dc                pcTaskGetName
 .text.uxTaskGetSystemState
                0x00011728      0x160 ./FreeRTOS_Source/tasks.o
                0x00011728                uxTaskGetSystemState
 .text.xTaskIncrementTick
                0x00011888      0x204 ./FreeRTOS_Source/tasks.o
                0x00011888                xTaskIncrementTick
 .text.vTaskSwitchContext
                0x00011a8c      0x1a8 ./FreeRTOS_Source/tasks.o
                0x00011a8c                vTaskSwitchContext
 .text.vTaskPlaceOnEventList
                0x00011c34       0x4c ./FreeRTOS_Source/tasks.o
                0x00011c34                vTaskPlaceOnEventList
 .text.vTaskPlaceOnUnorderedEventList
                0x00011c80       0x84 ./FreeRTOS_Source/tasks.o
                0x00011c80                vTaskPlaceOnUnorderedEventList
 .text.vTaskPlaceOnEventListRestricted
                0x00011d04       0x58 ./FreeRTOS_Source/tasks.o
                0x00011d04                vTaskPlaceOnEventListRestricted
 .text.xTaskRemoveFromEventList
                0x00011d5c       0xf0 ./FreeRTOS_Source/tasks.o
                0x00011d5c                xTaskRemoveFromEventList
 .text.vTaskRemoveFromUnorderedEventList
                0x00011e4c       0xe0 ./FreeRTOS_Source/tasks.o
                0x00011e4c                vTaskRemoveFromUnorderedEventList
 .text.vTaskSetTimeOutState
                0x00011f2c       0x50 ./FreeRTOS_Source/tasks.o
                0x00011f2c                vTaskSetTimeOutState
 .text.vTaskInternalSetTimeOutState
                0x00011f7c       0x30 ./FreeRTOS_Source/tasks.o
                0x00011f7c                vTaskInternalSetTimeOutState
 .text.xTaskCheckForTimeOut
                0x00011fac       0xd4 ./FreeRTOS_Source/tasks.o
                0x00011fac                xTaskCheckForTimeOut
 .text.vTaskMissedYield
                0x00012080       0x18 ./FreeRTOS_Source/tasks.o
                0x00012080                vTaskMissedYield
 .text.uxTaskGetTaskNumber
                0x00012098       0x30 ./FreeRTOS_Source/tasks.o
                0x00012098                uxTaskGetTaskNumber
 .text.vTaskSetTaskNumber
                0x000120c8       0x24 ./FreeRTOS_Source/tasks.o
                0x000120c8                vTaskSetTaskNumber
 .text.prvIdleTask
                0x000120ec       0x38 ./FreeRTOS_Source/tasks.o
 .text.prvInitialiseTaskLists
                0x00012124       0xa4 ./FreeRTOS_Source/tasks.o
 .text.prvCheckTasksWaitingTermination
                0x000121c8       0x78 ./FreeRTOS_Source/tasks.o
 .text.vTaskGetInfo
                0x00012240       0xe0 ./FreeRTOS_Source/tasks.o
                0x00012240                vTaskGetInfo
 .text.prvListTasksWithinSingleList
                0x00012320       0xb8 ./FreeRTOS_Source/tasks.o
 .text.prvTaskCheckFreeStackSpace
                0x000123d8       0x40 ./FreeRTOS_Source/tasks.o
 .text.prvDeleteTCB
                0x00012418       0x20 ./FreeRTOS_Source/tasks.o
 .text.prvResetNextTaskUnblockTime
                0x00012438       0x50 ./FreeRTOS_Source/tasks.o
 .text.xTaskGetCurrentTaskHandle
                0x00012488       0x20 ./FreeRTOS_Source/tasks.o
                0x00012488                xTaskGetCurrentTaskHandle
 .text.xTaskGetSchedulerState
                0x000124a8       0x48 ./FreeRTOS_Source/tasks.o
                0x000124a8                xTaskGetSchedulerState
 .text.xTaskPriorityInherit
                0x000124f0      0x16c ./FreeRTOS_Source/tasks.o
                0x000124f0                xTaskPriorityInherit
 .text.xTaskPriorityDisinherit
                0x0001265c      0x14c ./FreeRTOS_Source/tasks.o
                0x0001265c                xTaskPriorityDisinherit
 .text.vTaskPriorityDisinheritAfterTimeout
                0x000127a8      0x17c ./FreeRTOS_Source/tasks.o
                0x000127a8                vTaskPriorityDisinheritAfterTimeout
 .text.prvWriteNameToBuffer
                0x00012924       0x54 ./FreeRTOS_Source/tasks.o
 .text.vTaskList
                0x00012978      0x170 ./FreeRTOS_Source/tasks.o
                0x00012978                vTaskList
 .text.vTaskGetRunTimeStats
                0x00012ae8      0x138 ./FreeRTOS_Source/tasks.o
                0x00012ae8                vTaskGetRunTimeStats
 .text.uxTaskResetEventItemValue
                0x00012c20       0x40 ./FreeRTOS_Source/tasks.o
                0x00012c20                uxTaskResetEventItemValue
 .text.pvTaskIncrementMutexHeldCount
                0x00012c60       0x38 ./FreeRTOS_Source/tasks.o
                0x00012c60                pvTaskIncrementMutexHeldCount
 .text.ulTaskNotifyTake
                0x00012c98       0xc0 ./FreeRTOS_Source/tasks.o
                0x00012c98                ulTaskNotifyTake
 .text.xTaskNotifyWait
                0x00012d58       0xf0 ./FreeRTOS_Source/tasks.o
                0x00012d58                xTaskNotifyWait
 .text.xTaskGenericNotify
                0x00012e48      0x18c ./FreeRTOS_Source/tasks.o
                0x00012e48                xTaskGenericNotify
 .text.xTaskGenericNotifyFromISR
                0x00012fd4      0x1d8 ./FreeRTOS_Source/tasks.o
                0x00012fd4                xTaskGenericNotifyFromISR
 .text.vTaskNotifyGiveFromISR
                0x000131ac      0x148 ./FreeRTOS_Source/tasks.o
                0x000131ac                vTaskNotifyGiveFromISR
 .text.xTaskNotifyStateClear
                0x000132f4       0x58 ./FreeRTOS_Source/tasks.o
                0x000132f4                xTaskNotifyStateClear
 .text.prvAddCurrentTaskToDelayedList
                0x0001334c      0x110 ./FreeRTOS_Source/tasks.o
 .text          0x0001345c        0x0 ./FreeRTOS_Source/timers.o
 .text.xTimerCreateTimerTask
                0x0001345c       0x74 ./FreeRTOS_Source/timers.o
                0x0001345c                xTimerCreateTimerTask
 .text.xTimerCreate
                0x000134d0       0x40 ./FreeRTOS_Source/timers.o
                0x000134d0                xTimerCreate
 .text.prvInitialiseNewTimer
                0x00013510       0x64 ./FreeRTOS_Source/timers.o
 .text.xTimerGenericCommand
                0x00013574       0xcc ./FreeRTOS_Source/timers.o
                0x00013574                xTimerGenericCommand
 .text.xTimerGetTimerDaemonTaskHandle
                0x00013640       0x40 ./FreeRTOS_Source/timers.o
                0x00013640                xTimerGetTimerDaemonTaskHandle
 .text.xTimerGetPeriod
                0x00013680       0x38 ./FreeRTOS_Source/timers.o
                0x00013680                xTimerGetPeriod
 .text.xTimerGetExpiryTime
                0x000136b8       0x3c ./FreeRTOS_Source/timers.o
                0x000136b8                xTimerGetExpiryTime
 .text.pcTimerGetName
                0x000136f4       0x38 ./FreeRTOS_Source/timers.o
                0x000136f4                pcTimerGetName
 .text.prvProcessExpiredTimer
                0x0001372c       0x8c ./FreeRTOS_Source/timers.o
 .text.prvTimerTask
                0x000137b8       0x28 ./FreeRTOS_Source/timers.o
 .text.prvProcessTimerOrBlockTask
                0x000137e0       0xb0 ./FreeRTOS_Source/timers.o
 .text.prvGetNextExpireTime
                0x00013890       0x54 ./FreeRTOS_Source/timers.o
 .text.prvSampleTimeNow
                0x000138e4       0x50 ./FreeRTOS_Source/timers.o
 .text.prvInsertTimerInActiveList
                0x00013934       0x98 ./FreeRTOS_Source/timers.o
 .text.prvProcessReceivedCommands
                0x000139cc      0x148 ./FreeRTOS_Source/timers.o
 .text.prvSwitchTimerLists
                0x00013b14       0xf4 ./FreeRTOS_Source/timers.o
 .text.prvCheckForValidListAndQueue
                0x00013c08       0x74 ./FreeRTOS_Source/timers.o
 .text.xTimerIsTimerActive
                0x00013c7c       0x50 ./FreeRTOS_Source/timers.o
                0x00013c7c                xTimerIsTimerActive
 .text.pvTimerGetTimerID
                0x00013ccc       0x40 ./FreeRTOS_Source/timers.o
                0x00013ccc                pvTimerGetTimerID
 .text.vTimerSetTimerID
                0x00013d0c       0x40 ./FreeRTOS_Source/timers.o
                0x00013d0c                vTimerSetTimerID
 .text.uxTimerGetTimerNumber
                0x00013d4c       0x18 ./FreeRTOS_Source/timers.o
                0x00013d4c                uxTimerGetTimerNumber
 .text.vTimerSetTimerNumber
                0x00013d64       0x1c ./FreeRTOS_Source/timers.o
                0x00013d64                vTimerSetTimerNumber
 .text          0x00013d80        0x0 ./FreeRTOS_Source/portable/MemMang/heap_2.o
 .text.pvPortMalloc
                0x00013d80      0x16c ./FreeRTOS_Source/portable/MemMang/heap_2.o
                0x00013d80                pvPortMalloc
 .text.vPortFree
                0x00013eec       0x88 ./FreeRTOS_Source/portable/MemMang/heap_2.o
                0x00013eec                vPortFree
 .text.xPortGetFreeHeapSize
                0x00013f74       0x18 ./FreeRTOS_Source/portable/MemMang/heap_2.o
                0x00013f74                xPortGetFreeHeapSize
 .text.vPortInitialiseBlocks
                0x00013f8c        0xc ./FreeRTOS_Source/portable/MemMang/heap_2.o
                0x00013f8c                vPortInitialiseBlocks
 .text.prvHeapInit
                0x00013f98       0x6c ./FreeRTOS_Source/portable/MemMang/heap_2.o
 .text          0x00014004        0x0 ./FreeRTOS_Source/portable/GCC/ARM_CM3/port.o
 .text.pxPortInitialiseStack
                0x00014004       0x68 ./FreeRTOS_Source/portable/GCC/ARM_CM3/port.o
                0x00014004                pxPortInitialiseStack
 .text.prvTaskExitError
                0x0001406c       0x54 ./FreeRTOS_Source/portable/GCC/ARM_CM3/port.o
 .text.SVC_Handler
                0x000140c0       0x30 ./FreeRTOS_Source/portable/GCC/ARM_CM3/port.o
                0x000140c0                SVC_Handler
 .text.prvPortStartFirstTask
                0x000140f0       0x20 ./FreeRTOS_Source/portable/GCC/ARM_CM3/port.o
 .text.xPortStartScheduler
                0x00014110      0x134 ./FreeRTOS_Source/portable/GCC/ARM_CM3/port.o
                0x00014110                xPortStartScheduler
 .text.vPortEndScheduler
                0x00014244       0x34 ./FreeRTOS_Source/portable/GCC/ARM_CM3/port.o
                0x00014244                vPortEndScheduler
 .text.vPortEnterCritical
                0x00014278       0x70 ./FreeRTOS_Source/portable/GCC/ARM_CM3/port.o
                0x00014278                vPortEnterCritical
 .text.vPortExitCritical
                0x000142e8       0x64 ./FreeRTOS_Source/portable/GCC/ARM_CM3/port.o
                0x000142e8                vPortExitCritical
 *fill*         0x0001434c        0x4 00
 .text.PendSV_Handler
                0x00014350       0x50 ./FreeRTOS_Source/portable/GCC/ARM_CM3/port.o
                0x00014350                PendSV_Handler
 .text.SysTick_Handler
                0x000143a0       0x44 ./FreeRTOS_Source/portable/GCC/ARM_CM3/port.o
                0x000143a0                SysTick_Handler
 .text.vPortSetupTimerInterrupt
                0x000143e4       0x5c ./FreeRTOS_Source/portable/GCC/ARM_CM3/port.o
                0x000143e4                vPortSetupTimerInterrupt
 .text.vPortValidateInterruptPriority
                0x00014440       0x84 ./FreeRTOS_Source/portable/GCC/ARM_CM3/port.o
                0x00014440                vPortValidateInterruptPriority
 .text          0x000144c4      0x370 c:/program files (x86)/microsemi/softconsole v3.4/sourcery-g++/bin/../lib/gcc/arm-none-eabi/4.4.1/thumb2\libgcc.a(_arm_addsubdf3.o)
                0x000144c4                __aeabi_drsub
                0x000144cc                __aeabi_dsub
                0x000144cc                __subdf3
                0x000144d0                __aeabi_dadd
                0x000144d0                __adddf3
                0x00014748                __floatunsidf
                0x00014748                __aeabi_ui2d
                0x00014768                __floatsidf
                0x00014768                __aeabi_i2d
                0x0001478c                __aeabi_f2d
                0x0001478c                __extendsfdf2
                0x000147c8                __floatundidf
                0x000147c8                __aeabi_ul2d
                0x000147d8                __floatdidf
                0x000147d8                __aeabi_l2d
 .text          0x00014834      0x424 c:/program files (x86)/microsemi/softconsole v3.4/sourcery-g++/bin/../lib/gcc/arm-none-eabi/4.4.1/thumb2\libgcc.a(_arm_muldivdf3.o)
                0x00014834                __aeabi_dmul
                0x00014834                __muldf3
                0x00014a88                __divdf3
                0x00014a88                __aeabi_ddiv
 .text          0x00014c58       0x2c c:/program files (x86)/microsemi/softconsole v3.4/sourcery-g++/bin/../lib/gcc/arm-none-eabi/4.4.1/../../../../arm-none-eabi/lib/thumb2\libc.a(lib_a-clock.o)
                0x00014c58                clock
 .text          0x00014c84       0xc4 c:/program files (x86)/microsemi/softconsole v3.4/sourcery-g++/bin/../lib/gcc/arm-none-eabi/4.4.1/../../../../arm-none-eabi/lib/thumb2\libc.a(lib_a-efgcvt.o)
                0x00014c84                gcvt
                0x00014cd4                gcvtf
                0x00014ce8                ecvt
                0x00014cfc                ecvtf
                0x00014d18                fcvt
                0x00014d2c                fcvtf
 .text          0x00014d48        0xc c:/program files (x86)/microsemi/softconsole v3.4/sourcery-g++/bin/../lib/gcc/arm-none-eabi/4.4.1/../../../../arm-none-eabi/lib/thumb2\libc.a(lib_a-errno.o)
                0x00014d48                __errno
 .text          0x00014d54        0x0 c:/program files (x86)/microsemi/softconsole v3.4/sourcery-g++/bin/../lib/gcc/arm-none-eabi/4.4.1/../../../../arm-none-eabi/lib/thumb2\libc.a(lib_a-impure.o)
 .text          0x00014d54       0x50 c:/program files (x86)/microsemi/softconsole v3.4/sourcery-g++/bin/../lib/gcc/arm-none-eabi/4.4.1/../../../../arm-none-eabi/lib/thumb2\libc.a(lib_a-init.o)
                0x00014d54                __libc_init_array
 .text          0x00014da4      0x190 c:/program files (x86)/microsemi/softconsole v3.4/sourcery-g++/bin/../lib/gcc/arm-none-eabi/4.4.1/../../../../arm-none-eabi/lib/thumb2\libc.a(lib_a-memcpy.o)
                0x00014da4                memcpy
 .text          0x00014f34       0xd4 c:/program files (x86)/microsemi/softconsole v3.4/sourcery-g++/bin/../lib/gcc/arm-none-eabi/4.4.1/../../../../arm-none-eabi/lib/thumb2\libc.a(lib_a-memset.o)
                0x00014f34                memset
 .text          0x00015008       0xdc c:/program files (x86)/microsemi/softconsole v3.4/sourcery-g++/bin/../lib/gcc/arm-none-eabi/4.4.1/../../../../arm-none-eabi/lib/thumb2\libc.a(lib_a-snprintf.o)
                0x00015008                snprintf
                0x0001507c                _snprintf_r
 .text          0x000150e4       0x94 c:/program files (x86)/microsemi/softconsole v3.4/sourcery-g++/bin/../lib/gcc/arm-none-eabi/4.4.1/../../../../arm-none-eabi/lib/thumb2\libc.a(lib_a-sprintf.o)
                0x000150e4                sprintf
                0x00015134                _sprintf_r
 .text          0x00015178       0x48 c:/program files (x86)/microsemi/softconsole v3.4/sourcery-g++/bin/../lib/gcc/arm-none-eabi/4.4.1/../../../../arm-none-eabi/lib/thumb2\libc.a(lib_a-strcat.o)
                0x00015178                strcat
 .text          0x000151c0       0xc0 c:/program files (x86)/microsemi/softconsole v3.4/sourcery-g++/bin/../lib/gcc/arm-none-eabi/4.4.1/../../../../arm-none-eabi/lib/thumb2\libc.a(lib_a-strchr.o)
                0x000151c0                strchr
 .text          0x00015280       0xbc c:/program files (x86)/microsemi/softconsole v3.4/sourcery-g++/bin/../lib/gcc/arm-none-eabi/4.4.1/../../../../arm-none-eabi/lib/thumb2\libc.a(lib_a-strcpy.o)
                0x00015280                strcpy
 .text          0x0001533c       0x60 c:/program files (x86)/microsemi/softconsole v3.4/sourcery-g++/bin/../lib/gcc/arm-none-eabi/4.4.1/../../../../arm-none-eabi/lib/thumb2\libc.a(lib_a-strlen.o)
                0x0001533c                strlen
 .text          0x0001539c       0xa8 c:/program files (x86)/microsemi/softconsole v3.4/sourcery-g++/bin/../lib/gcc/arm-none-eabi/4.4.1/../../../../arm-none-eabi/lib/thumb2\libc.a(lib_a-strncmp.o)
                0x0001539c                strncmp
 .text          0x00015444       0x78 c:/program files (x86)/microsemi/softconsole v3.4/sourcery-g++/bin/../lib/gcc/arm-none-eabi/4.4.1/../../../../arm-none-eabi/lib/thumb2\libc.a(lib_a-strncpy.o)
                0x00015444                strncpy
 .text          0x000154bc       0x2c c:/program files (x86)/microsemi/softconsole v3.4/sourcery-g++/bin/../lib/gcc/arm-none-eabi/4.4.1/../../../../arm-none-eabi/lib/thumb2\libc.a(lib_a-strrchr.o)
                0x000154bc                strrchr
 .text          0x000154e8      0x548 c:/program files (x86)/microsemi/softconsole v3.4/sourcery-g++/bin/../lib/gcc/arm-none-eabi/4.4.1/../../../../arm-none-eabi/lib/thumb2\libc.a(lib_a-strstr.o)
                0x00015804                strstr
 .text          0x00015a30     0x15a8 c:/program files (x86)/microsemi/softconsole v3.4/sourcery-g++/bin/../lib/gcc/arm-none-eabi/4.4.1/../../../../arm-none-eabi/lib/thumb2\libc.a(lib_a-svfprintf.o)
                0x00015b4c                _svfprintf_r
 .text          0x00016fd8        0x8 c:/program files (x86)/microsemi/softconsole v3.4/sourcery-g++/bin/../lib/gcc/arm-none-eabi/4.4.1/../../../../arm-none-eabi/lib/thumb2\libc.a(lib_a-timesr.o)
                0x00016fd8                _times_r
 .text          0x00016fe0      0xfb8 c:/program files (x86)/microsemi/softconsole v3.4/sourcery-g++/bin/../lib/gcc/arm-none-eabi/4.4.1/../../../../arm-none-eabi/lib/thumb2\libc.a(lib_a-dtoa.o)
                0x00017100                _dtoa_r
 .text          0x00017f98      0x688 c:/program files (x86)/microsemi/softconsole v3.4/sourcery-g++/bin/../lib/gcc/arm-none-eabi/4.4.1/../../../../arm-none-eabi/lib/thumb2\libc.a(lib_a-ecvtbuf.o)
                0x000180c8                _gcvt
                0x000182d0                ecvtbuf
                0x00018384                fcvtbuf
                0x00018474                _dcvt
 .text          0x00018620      0x268 c:/program files (x86)/microsemi/softconsole v3.4/sourcery-g++/bin/../lib/gcc/arm-none-eabi/4.4.1/../../../../arm-none-eabi/lib/thumb2\libc.a(lib_a-freer.o)
                0x00018620                _malloc_trim_r
                0x000186c8                _free_r
 .text          0x00018888       0x74 c:/program files (x86)/microsemi/softconsole v3.4/sourcery-g++/bin/../lib/gcc/arm-none-eabi/4.4.1/../../../../arm-none-eabi/lib/thumb2\libc.a(lib_a-locale.o)
                0x00018888                __locale_charset
                0x00018894                _localeconv_r
                0x0001889c                localeconv
                0x000188a4                _setlocale_r
                0x000188ec                setlocale
 .text          0x000188fc       0x20 c:/program files (x86)/microsemi/softconsole v3.4/sourcery-g++/bin/../lib/gcc/arm-none-eabi/4.4.1/../../../../arm-none-eabi/lib/thumb2\libc.a(lib_a-malloc.o)
                0x000188fc                free
                0x0001890c                malloc
 .text          0x0001891c      0x5a4 c:/program files (x86)/microsemi/softconsole v3.4/sourcery-g++/bin/../lib/gcc/arm-none-eabi/4.4.1/../../../../arm-none-eabi/lib/thumb2\libc.a(lib_a-mallocr.o)
                0x0001891c                _malloc_r
 .text          0x00018ec0       0x74 c:/program files (x86)/microsemi/softconsole v3.4/sourcery-g++/bin/../lib/gcc/arm-none-eabi/4.4.1/../../../../arm-none-eabi/lib/thumb2\libc.a(lib_a-memchr.o)
                0x00018ec0                memchr
 .text          0x00018f34       0x64 c:/program files (x86)/microsemi/softconsole v3.4/sourcery-g++/bin/../lib/gcc/arm-none-eabi/4.4.1/../../../../arm-none-eabi/lib/thumb2\libc.a(lib_a-memcmp.o)
                0x00018f34                memcmp
 .text          0x00018f98       0xb8 c:/program files (x86)/microsemi/softconsole v3.4/sourcery-g++/bin/../lib/gcc/arm-none-eabi/4.4.1/../../../../arm-none-eabi/lib/thumb2\libc.a(lib_a-memmove.o)
                0x00018f98                memmove
 .text          0x00019050        0x8 c:/program files (x86)/microsemi/softconsole v3.4/sourcery-g++/bin/../lib/gcc/arm-none-eabi/4.4.1/../../../../arm-none-eabi/lib/thumb2\libc.a(lib_a-mlock.o)
                0x00019050                __malloc_lock
                0x00019054                __malloc_unlock
 .text          0x00019058      0x958 c:/program files (x86)/microsemi/softconsole v3.4/sourcery-g++/bin/../lib/gcc/arm-none-eabi/4.4.1/../../../../arm-none-eabi/lib/thumb2\libc.a(lib_a-mprec.o)
                0x00019058                __hi0bits
                0x00019098                __lo0bits
                0x000190fc                __mcmp
                0x0001913c                __ulp
                0x00019188                __b2d
                0x00019230                __ratio
                0x00019290                _mprec_log10
                0x000192c8                __copybits
                0x00019318                __any_on
                0x00019370                _Bfree
                0x000193a8                _Balloc
                0x00019414                __d2b
                0x000194e4                __mdiff
                0x000195dc                __lshift
                0x00019698                __multiply
                0x000197cc                __i2b
                0x000197e0                __multadd
                0x00019868                __pow5mult
                0x00019914                __s2b
 .text          0x000199b0      0x3b4 c:/program files (x86)/microsemi/softconsole v3.4/sourcery-g++/bin/../lib/gcc/arm-none-eabi/4.4.1/../../../../arm-none-eabi/lib/thumb2\libc.a(lib_a-reallocr.o)
                0x000199b0                _realloc_r
 .text          0x00019d64       0x24 c:/program files (x86)/microsemi/softconsole v3.4/sourcery-g++/bin/../lib/gcc/arm-none-eabi/4.4.1/../../../../arm-none-eabi/lib/thumb2\libc.a(lib_a-s_isinfd.o)
                0x00019d64                __isinfd
 .text          0x00019d88       0x1c c:/program files (x86)/microsemi/softconsole v3.4/sourcery-g++/bin/../lib/gcc/arm-none-eabi/4.4.1/../../../../arm-none-eabi/lib/thumb2\libc.a(lib_a-s_isnand.o)
                0x00019d88                __isnand
 .text          0x00019da4       0x28 c:/program files (x86)/microsemi/softconsole v3.4/sourcery-g++/bin/../lib/gcc/arm-none-eabi/4.4.1/../../../../arm-none-eabi/lib/thumb2\libc.a(lib_a-sbrkr.o)
                0x00019da4                _sbrk_r
 .text          0x00019dcc      0x1dc c:/program files (x86)/microsemi/softconsole v3.4/sourcery-g++/bin/../lib/gcc/arm-none-eabi/4.4.1/../../../../arm-none-eabi/lib/thumb2\libc.a(lib_a-strcmp.o)
                0x00019dcc                strcmp
 .text          0x00019fa8       0x5c c:/program files (x86)/microsemi/softconsole v3.4/sourcery-g++/bin/../lib/gcc/arm-none-eabi/4.4.1/../../../../arm-none-eabi/lib/thumb2\libc.a(lib_a-callocr.o)
                0x00019fa8                _calloc_r
 .text          0x0001a004      0x10c c:/program files (x86)/microsemi/softconsole v3.4/sourcery-g++/bin/../lib/gcc/arm-none-eabi/4.4.1/../../../../arm-none-eabi/lib/thumb2\libc.a(lib_a-reent.o)
                0x0001a004                _wrapup_reent
                0x0001a03c                cleanup_glue
                0x0001a058                _reclaim_reent
 .text          0x0001a110      0x278 c:/program files (x86)/microsemi/softconsole v3.4/sourcery-g++/bin/../lib/gcc/arm-none-eabi/4.4.1/thumb2\libgcc.a(_udivsi3.o)
                0x0001a110                __aeabi_uidiv
                0x0001a110                __udivsi3
                0x0001a36c                __aeabi_uidivmod
 .text          0x0001a388        0x4 c:/program files (x86)/microsemi/softconsole v3.4/sourcery-g++/bin/../lib/gcc/arm-none-eabi/4.4.1/thumb2\libgcc.a(_dvmd_tls.o)
                0x0001a388                __aeabi_idiv0
                0x0001a388                __aeabi_ldiv0
 .text          0x0001a38c      0x110 c:/program files (x86)/microsemi/softconsole v3.4/sourcery-g++/bin/../lib/gcc/arm-none-eabi/4.4.1/thumb2\libgcc.a(_arm_cmpdf2.o)
                0x0001a38c                __gtdf2
                0x0001a38c                __gedf2
                0x0001a394                __ltdf2
                0x0001a394                __ledf2
                0x0001a39c                __nedf2
                0x0001a39c                __eqdf2
                0x0001a39c                __cmpdf2
                0x0001a418                __aeabi_cdrcmple
                0x0001a428                __aeabi_cdcmpeq
                0x0001a428                __aeabi_cdcmple
                0x0001a438                __aeabi_dcmpeq
                0x0001a44c                __aeabi_dcmplt
                0x0001a460                __aeabi_dcmple
                0x0001a474                __aeabi_dcmpge
                0x0001a488                __aeabi_dcmpgt
 .text          0x0001a49c       0x50 c:/program files (x86)/microsemi/softconsole v3.4/sourcery-g++/bin/../lib/gcc/arm-none-eabi/4.4.1/thumb2\libgcc.a(_arm_fixdfsi.o)
                0x0001a49c                __aeabi_d2iz
                0x0001a49c                __fixdfsi
 .text          0x0001a4ec       0x2c c:/program files (x86)/microsemi/softconsole v3.4/sourcery-g++/bin/../lib/gcc/arm-none-eabi/4.4.1/thumb2\libgcc.a(_aeabi_uldivmod.o)
                0x0001a4ec                __aeabi_uldivmod
 .text          0x0001a518       0x58 c:/program files (x86)/microsemi/softconsole v3.4/sourcery-g++/bin/../lib/gcc/arm-none-eabi/4.4.1/thumb2\libgcc.a(bpabi.o)
                0x0001a518                __gnu_uldivmod_helper
                0x0001a544                __gnu_ldivmod_helper
 .text          0x0001a570      0x364 c:/program files (x86)/microsemi/softconsole v3.4/sourcery-g++/bin/../lib/gcc/arm-none-eabi/4.4.1/thumb2\libgcc.a(_divdi3.o)
                0x0001a570                __divdi3
 .text          0x0001a8d4      0x300 c:/program files (x86)/microsemi/softconsole v3.4/sourcery-g++/bin/../lib/gcc/arm-none-eabi/4.4.1/thumb2\libgcc.a(_udivdi3.o)
                0x0001a8d4                __udivdi3
 .text          0x0001abd4        0x0 c:/program files (x86)/microsemi/softconsole v3.4/sourcery-g++/bin/../lib/gcc/arm-none-eabi/4.4.1/thumb2/crtend.o
 .text          0x0001abd4        0x0 c:/program files (x86)/microsemi/softconsole v3.4/sourcery-g++/bin/../lib/gcc/arm-none-eabi/4.4.1/thumb2/crtn.o
 *(.plt)
 *(.gnu.warning)
 *(.glue_7t)
 .glue_7t       0x00000000        0x0 linker stubs
 *(.glue_7)
 .glue_7        0x00000000        0x0 linker stubs
 *(.vfp11_veneer)
 .vfp11_veneer  0x00000000        0x0 linker stubs
                0x0001abd4                . = ALIGN (0x4)
 *crtbegin.o(.ctors)
 *(EXCLUDE_FILE(*crtend.o) .ctors)
 *(SORT(.ctors.*))
 *crtend.o(.ctors)
 *crtbegin.o(.dtors)
 *(EXCLUDE_FILE(*crtend.o) .dtors)
 *(SORT(.dtors.*))
 *crtend.o(.dtors)
 *(.rodata .rodata.* .gnu.linkonce.r.*)
 .rodata        0x0001abd4      0x130 ./main-full.o
 .rodata        0x0001ad04       0x30 ./uIP_Task.o
 .rodata.ulARPTimerExpired.4126
                0x0001ad34        0x4 ./uIP_Task.o
 .rodata.ulPeriodicTimerExpired.4127
                0x0001ad38        0x4 ./uIP_Task.o
 .rodata        0x0001ad3c      0x168 ./WebServer/httpd-cgi.o
 .rodata.file   0x0001aea4        0x8 ./WebServer/httpd-cgi.o
 .rodata.tcp    0x0001aeac        0x8 ./WebServer/httpd-cgi.o
 .rodata.net    0x0001aeb4        0x8 ./WebServer/httpd-cgi.o
 .rodata.rtos   0x0001aebc        0x8 ./WebServer/httpd-cgi.o
 .rodata.run    0x0001aec4        0x8 ./WebServer/httpd-cgi.o
 .rodata.io     0x0001aecc        0x8 ./WebServer/httpd-cgi.o
 .rodata.output
                0x0001aed4        0x8 ./WebServer/httpd-cgi.o
 .rodata.closed
                0x0001aedc        0x8 ./WebServer/httpd-cgi.o
 .rodata.syn_rcvd
                0x0001aee4        0xc ./WebServer/httpd-cgi.o
 .rodata.syn_sent
                0x0001aef0        0xc ./WebServer/httpd-cgi.o
 .rodata.established
                0x0001aefc        0xc ./WebServer/httpd-cgi.o
 .rodata.fin_wait_1
                0x0001af08        0xc ./WebServer/httpd-cgi.o
 .rodata.fin_wait_2
                0x0001af14        0xc ./WebServer/httpd-cgi.o
 .rodata.closing
                0x0001af20        0x8 ./WebServer/httpd-cgi.o
 .rodata.time_wait
                0x0001af28        0xc ./WebServer/httpd-cgi.o
 .rodata.last_ack
                0x0001af34        0xc ./WebServer/httpd-cgi.o
 .rodata.g_ace_current_resistors
                0x0001af40       0x10 ./MicroSemi_Code/drivers_config/mss_ace/ace_config.o
                0x0001af40                g_ace_current_resistors
 .rodata.g_ace_external_varef_used
                0x0001af50        0x4 ./MicroSemi_Code/drivers_config/mss_ace/ace_config.o
                0x0001af50                g_ace_external_varef_used
 .rodata.g_ace_channel_0_name
                0x0001af54       0x14 ./MicroSemi_Code/drivers_config/mss_ace/ace_config.o
                0x0001af54                g_ace_channel_0_name
 .rodata.g_ace_channel_1_name
                0x0001af68       0x14 ./MicroSemi_Code/drivers_config/mss_ace/ace_config.o
                0x0001af68                g_ace_channel_1_name
 .rodata.g_ace_channel_2_name
                0x0001af7c       0x18 ./MicroSemi_Code/drivers_config/mss_ace/ace_config.o
                0x0001af7c                g_ace_channel_2_name
 .rodata.g_ace_ppe_transforms_desc_table
                0x0001af94       0x18 ./MicroSemi_Code/drivers_config/mss_ace/ace_config.o
                0x0001af94                g_ace_ppe_transforms_desc_table
 .rodata.g_ace_sse_proc_0_name
                0x0001afac        0xc ./MicroSemi_Code/drivers_config/mss_ace/ace_config.o
                0x0001afac                g_ace_sse_proc_0_name
 .rodata.g_ace_sse_proc_0_sequence
                0x0001afb8       0x28 ./MicroSemi_Code/drivers_config/mss_ace/ace_config.o
                0x0001afb8                g_ace_sse_proc_0_sequence
 .rodata.g_ace_sse_proc_1_name
                0x0001afe0        0xc ./MicroSemi_Code/drivers_config/mss_ace/ace_config.o
                0x0001afe0                g_ace_sse_proc_1_name
 .rodata.g_ace_sse_proc_1_sequence
                0x0001afec        0x8 ./MicroSemi_Code/drivers_config/mss_ace/ace_config.o
                0x0001afec                g_ace_sse_proc_1_sequence
 .rodata.g_config_reg_lut
                0x0001aff4       0x80 ./MicroSemi_Code/drivers/mss_gpio/mss_gpio.o
 .rodata.g_gpio_irqn_lut
                0x0001b074       0x40 ./MicroSemi_Code/drivers/mss_gpio/mss_gpio.o
 .rodata.crc32_table
                0x0001b0b4      0x400 ./MicroSemi_Code/drivers/mss_ethernet_mac/crc32.o
 .rodata.unknown_error
                0x0001b4b4       0x10 ./MicroSemi_Code/drivers/mss_ethernet_mac/mss_ethernet_mac.o
 .rodata.ErrorMessages
                0x0001b4c4      0x140 ./MicroSemi_Code/drivers/mss_ethernet_mac/mss_ethernet_mac.o
 .rodata.C.18.3199
                0x0001b604        0x8 ./MicroSemi_Code/drivers/mss_ethernet_mac/mss_ethernet_mac.o
 .rodata.channel_type_lut
                0x0001b60c       0x30 ./MicroSemi_Code/drivers/mss_ace/ace_convert.o
 .rodata.channel_quad_lut
                0x0001b63c       0x30 ./MicroSemi_Code/drivers/mss_ace/ace_convert.o
 .rodata.abps_channel_lut
                0x0001b66c       0x30 ./MicroSemi_Code/drivers/mss_ace/ace_convert.o
 .rodata.abps_idx_lut
                0x0001b69c       0x30 ./MicroSemi_Code/drivers/mss_ace/ace_convert.o
 .rodata.apbs_gain_lut
                0x0001b6cc        0x4 ./MicroSemi_Code/drivers/mss_ace/ace_convert.o
 .rodata.apbs_range
                0x0001b6d0        0x8 ./MicroSemi_Code/drivers/mss_ace/ace_convert.o
 .rodata.sse_pc_ctrl_lut
                0x0001b6d8        0xc ./MicroSemi_Code/drivers/mss_ace/ace_sse.o
 .rodata.sse_pc_lo_lut
                0x0001b6e4        0xc ./MicroSemi_Code/drivers/mss_ace/ace_sse.o
 .rodata.sse_pc_hi_lut
                0x0001b6f0        0xc ./MicroSemi_Code/drivers/mss_ace/ace_sse.o
 .rodata.p_mtd_data
                0x0001b6fc        0x4 ./MicroSemi_Code/drivers/mss_ace/ace_transform.o
 .rodata.C.24.3277
                0x0001b700       0x10 ./MicroSemi_Code/drivers/mss_ace/ace_transform.o
 .rodata.C.36.3341
                0x0001b710       0x40 ./MicroSemi_Code/drivers/mss_ace/ace_transform.o
 .rodata.C.18.3187
                0x0001b750        0x8 ./MicroSemi_Code/drivers/mss_ace/ace_transform.o
 .rodata.adc_status_reg_lut
                0x0001b758        0xc ./MicroSemi_Code/drivers/mss_ace/mss_ace.o
 .rodata.dac_ctrl_reg_lut
                0x0001b764        0xc ./MicroSemi_Code/drivers/mss_ace/mss_ace.o
 .rodata.dac_enable_masks_lut
                0x0001b770        0xc ./MicroSemi_Code/drivers/mss_ace/mss_ace.o
 .rodata.dac_byte01_reg_lut
                0x0001b77c        0xc ./MicroSemi_Code/drivers/mss_ace/mss_ace.o
 .rodata.dac_byte2_reg_lut
                0x0001b788        0xc ./MicroSemi_Code/drivers/mss_ace/mss_ace.o
 .rodata.p_mtd_data
                0x0001b794        0x4 ./MicroSemi_Code/drivers/mss_ace/mss_ace.o
 .rodata.comp_id_2_scb_lut
                0x0001b798        0xc ./MicroSemi_Code/drivers/mss_ace/mss_ace.o
                0x0001b798                comp_id_2_scb_lut
 .rodata.C.18.3512
                0x0001b7a4        0x4 ./MicroSemi_Code/drivers/mss_ace/mss_ace.o
 .rodata.C.18.2576
                0x0001b7a8       0x10 ./MicroSemi_Code/CMSIS/system_a2fxxxm3.o
 .rodata        0x0001b7b8       0x1c ./MicroSemi_Code/CMSIS/startup_gcc/newlib_stubs.o
 .rodata.uart_instance
                0x0001b7d4        0x4 ./Helpers/uart_helper.o
                0x0001b7d4                uart_instance
 .rodata.uip_broadcast_addr
                0x0001b7d8        0x4 ./FreeTCPIP/uip.o
                0x0001b7d8                uip_broadcast_addr
 .rodata.uip_all_zeroes_addr
                0x0001b7dc        0x4 ./FreeTCPIP/uip.o
                0x0001b7dc                uip_all_zeroes_addr
 .rodata.broadcast_ethaddr
                0x0001b7e0        0x8 ./FreeTCPIP/uip_arp.o
 .rodata.http_http
                0x0001b7e8        0x8 ./FreeTCPIP/http_Common/http-strings.o
                0x0001b7e8                http_http
 .rodata.http_200
                0x0001b7f0        0x8 ./FreeTCPIP/http_Common/http-strings.o
                0x0001b7f0                http_200
 .rodata.http_301
                0x0001b7f8        0x8 ./FreeTCPIP/http_Common/http-strings.o
                0x0001b7f8                http_301
 .rodata.http_302
                0x0001b800        0x8 ./FreeTCPIP/http_Common/http-strings.o
                0x0001b800                http_302
 .rodata.http_get
                0x0001b808        0x8 ./FreeTCPIP/http_Common/http-strings.o
                0x0001b808                http_get
 .rodata.http_10
                0x0001b810        0xc ./FreeTCPIP/http_Common/http-strings.o
                0x0001b810                http_10
 .rodata.http_11
                0x0001b81c        0xc ./FreeTCPIP/http_Common/http-strings.o
                0x0001b81c                http_11
 .rodata.http_content_type
                0x0001b828       0x10 ./FreeTCPIP/http_Common/http-strings.o
                0x0001b828                http_content_type
 .rodata.http_texthtml
                0x0001b838        0xc ./FreeTCPIP/http_Common/http-strings.o
                0x0001b838                http_texthtml
 .rodata.http_location
                0x0001b844        0xc ./FreeTCPIP/http_Common/http-strings.o
                0x0001b844                http_location
 .rodata.http_host
                0x0001b850        0x8 ./FreeTCPIP/http_Common/http-strings.o
                0x0001b850                http_host
 .rodata.http_crnl
                0x0001b858        0x4 ./FreeTCPIP/http_Common/http-strings.o
                0x0001b858                http_crnl
 .rodata.http_index_html
                0x0001b85c        0xc ./FreeTCPIP/http_Common/http-strings.o
                0x0001b85c                http_index_html
 .rodata.http_404_html
                0x0001b868        0xc ./FreeTCPIP/http_Common/http-strings.o
                0x0001b868                http_404_html
 .rodata.http_referer
                0x0001b874        0xc ./FreeTCPIP/http_Common/http-strings.o
                0x0001b874                http_referer
 .rodata.http_header_200
                0x0001b880       0x54 ./FreeTCPIP/http_Common/http-strings.o
                0x0001b880                http_header_200
 .rodata.http_header_404
                0x0001b8d4       0x5c ./FreeTCPIP/http_Common/http-strings.o
                0x0001b8d4                http_header_404
 .rodata.http_content_type_plain
                0x0001b930       0x20 ./FreeTCPIP/http_Common/http-strings.o
                0x0001b930                http_content_type_plain
 .rodata.http_content_type_html
                0x0001b950       0x1c ./FreeTCPIP/http_Common/http-strings.o
                0x0001b950                http_content_type_html
 .rodata.http_content_type_css
                0x0001b96c       0x1c ./FreeTCPIP/http_Common/http-strings.o
                0x0001b96c                http_content_type_css
 .rodata.http_content_type_text
                0x0001b988       0x1c ./FreeTCPIP/http_Common/http-strings.o
                0x0001b988                http_content_type_text
 .rodata.http_content_type_png
                0x0001b9a4       0x1c ./FreeTCPIP/http_Common/http-strings.o
                0x0001b9a4                http_content_type_png
 .rodata.http_content_type_gif
                0x0001b9c0       0x1c ./FreeTCPIP/http_Common/http-strings.o
                0x0001b9c0                http_content_type_gif
 .rodata.http_content_type_jpg
                0x0001b9dc       0x20 ./FreeTCPIP/http_Common/http-strings.o
                0x0001b9dc                http_content_type_jpg
 .rodata.http_content_type_binary
                0x0001b9fc       0x2c ./FreeTCPIP/http_Common/http-strings.o
                0x0001b9fc                http_content_type_binary
 .rodata.http_html
                0x0001ba28        0x8 ./FreeTCPIP/http_Common/http-strings.o
                0x0001ba28                http_html
 .rodata.http_shtml
                0x0001ba30        0x8 ./FreeTCPIP/http_Common/http-strings.o
                0x0001ba30                http_shtml
 .rodata.http_htm
                0x0001ba38        0x8 ./FreeTCPIP/http_Common/http-strings.o
                0x0001ba38                http_htm
 .rodata.http_css
                0x0001ba40        0x8 ./FreeTCPIP/http_Common/http-strings.o
                0x0001ba40                http_css
 .rodata.http_png
                0x0001ba48        0x8 ./FreeTCPIP/http_Common/http-strings.o
                0x0001ba48                http_png
 .rodata.http_gif
                0x0001ba50        0x8 ./FreeTCPIP/http_Common/http-strings.o
                0x0001ba50                http_gif
 .rodata.http_jpg
                0x0001ba58        0x8 ./FreeTCPIP/http_Common/http-strings.o
                0x0001ba58                http_jpg
 .rodata.http_text
                0x0001ba60        0x8 ./FreeTCPIP/http_Common/http-strings.o
                0x0001ba60                http_text
 .rodata.http_txt
                0x0001ba68        0x8 ./FreeTCPIP/http_Common/http-strings.o
                0x0001ba68                http_txt
 .rodata.data_404_html
                0x0001ba70       0xb4 ./FreeTCPIP/http_Common/httpd-fs.o
 .rodata.data_index_html
                0x0001bb24      0x5cc ./FreeTCPIP/http_Common/httpd-fs.o
 .rodata.data_io_shtml
                0x0001c0f0     0x45c0 ./FreeTCPIP/http_Common/httpd-fs.o
 .rodata.data_runtime_shtml
                0x000206b0      0x37c ./FreeTCPIP/http_Common/httpd-fs.o
 .rodata.data_sensordata_shtml
                0x00020a2c       0x24 ./FreeTCPIP/http_Common/httpd-fs.o
 .rodata.data_smoothie_min_js
                0x00020a50     0x2bf0 ./FreeTCPIP/http_Common/httpd-fs.o
 .rodata.data_stats_shtml
                0x00023640      0x660 ./FreeTCPIP/http_Common/httpd-fs.o
 .rodata.data_tcp_shtml
                0x00023ca0      0x314 ./FreeTCPIP/http_Common/httpd-fs.o
 .rodata.file_404_html
                0x00023fb4       0x14 ./FreeTCPIP/http_Common/httpd-fs.o
                0x00023fb4                file_404_html
 .rodata.file_index_html
                0x00023fc8       0x14 ./FreeTCPIP/http_Common/httpd-fs.o
                0x00023fc8                file_index_html
 .rodata.file_io_shtml
                0x00023fdc       0x14 ./FreeTCPIP/http_Common/httpd-fs.o
                0x00023fdc                file_io_shtml
 .rodata.file_runtime_shtml
                0x00023ff0       0x14 ./FreeTCPIP/http_Common/httpd-fs.o
                0x00023ff0                file_runtime_shtml
 .rodata.file_sensordata_shtml
                0x00024004       0x14 ./FreeTCPIP/http_Common/httpd-fs.o
                0x00024004                file_sensordata_shtml
 .rodata.file_smoothie_min_js
                0x00024018       0x14 ./FreeTCPIP/http_Common/httpd-fs.o
                0x00024018                file_smoothie_min_js
 .rodata.file_stats_shtml
                0x0002402c       0x14 ./FreeTCPIP/http_Common/httpd-fs.o
                0x0002402c                file_stats_shtml
 .rodata.file_tcp_shtml
                0x00024040       0x14 ./FreeTCPIP/http_Common/httpd-fs.o
                0x00024040                file_tcp_shtml
 .rodata        0x00024054       0x30 ./FreeRTOS_Source/tasks.o
 .rodata        0x00024084        0x8 ./FreeRTOS_Source/timers.o
 .rodata.heapSTRUCT_SIZE
                0x0002408c        0x2 ./FreeRTOS_Source/portable/MemMang/heap_2.o
 *fill*         0x0002408e        0x2 00
 .rodata.pcInterruptPriorityRegisters
                0x00024090        0x4 ./FreeRTOS_Source/portable/GCC/ARM_CM3/port.o
 .rodata        0x00024094        0x4 c:/program files (x86)/microsemi/softconsole v3.4/sourcery-g++/bin/../lib/gcc/arm-none-eabi/4.4.1/../../../../arm-none-eabi/lib/thumb2\libc.a(lib_a-impure.o)
                0x00024094                _global_impure_ptr
 .rodata.str1.4
                0x00024098        0x2 c:/program files (x86)/microsemi/softconsole v3.4/sourcery-g++/bin/../lib/gcc/arm-none-eabi/4.4.1/../../../../arm-none-eabi/lib/thumb2\libc.a(lib_a-impure.o)
                                  0x4 (size before relaxing)
 *fill*         0x0002409a        0x2 00
 .rodata        0x0002409c       0x20 c:/program files (x86)/microsemi/softconsole v3.4/sourcery-g++/bin/../lib/gcc/arm-none-eabi/4.4.1/../../../../arm-none-eabi/lib/thumb2\libc.a(lib_a-svfprintf.o)
 .rodata.str1.4
                0x000240bc       0x42 c:/program files (x86)/microsemi/softconsole v3.4/sourcery-g++/bin/../lib/gcc/arm-none-eabi/4.4.1/../../../../arm-none-eabi/lib/thumb2\libc.a(lib_a-svfprintf.o)
                                 0x44 (size before relaxing)
 *fill*         0x000240fe        0x2 00
 .rodata.str1.4
                0x00024100       0x10 c:/program files (x86)/microsemi/softconsole v3.4/sourcery-g++/bin/../lib/gcc/arm-none-eabi/4.4.1/../../../../arm-none-eabi/lib/thumb2\libc.a(lib_a-dtoa.o)
                                 0x14 (size before relaxing)
 .rodata        0x00024110       0x34 c:/program files (x86)/microsemi/softconsole v3.4/sourcery-g++/bin/../lib/gcc/arm-none-eabi/4.4.1/../../../../arm-none-eabi/lib/thumb2\libc.a(lib_a-locale.o)
 .rodata.str1.4
                0x00024144       0x10 c:/program files (x86)/microsemi/softconsole v3.4/sourcery-g++/bin/../lib/gcc/arm-none-eabi/4.4.1/../../../../arm-none-eabi/lib/thumb2\libc.a(lib_a-locale.o)
                                 0x18 (size before relaxing)
 *fill*         0x00024154        0x4 00
 .rodata        0x00024158      0x128 c:/program files (x86)/microsemi/softconsole v3.4/sourcery-g++/bin/../lib/gcc/arm-none-eabi/4.4.1/../../../../arm-none-eabi/lib/thumb2\libc.a(lib_a-mprec.o)
                0x00024158                __mprec_tens
                0x00024230                __mprec_bigtens
                0x00024258                __mprec_tinytens
 *(.ARM.extab* .gnu.linkonce.armextab.*)
 .ARM.extab     0x00024280        0x0 c:/program files (x86)/microsemi/softconsole v3.4/sourcery-g++/bin/../lib/gcc/arm-none-eabi/4.4.1/thumb2\libgcc.a(_divdi3.o)
 .ARM.extab     0x00024280        0x0 c:/program files (x86)/microsemi/softconsole v3.4/sourcery-g++/bin/../lib/gcc/arm-none-eabi/4.4.1/thumb2\libgcc.a(_udivdi3.o)
 *(.gcc_except_table)
 *(.eh_frame_hdr)
 *(.eh_frame)
 *(.init)
 .init          0x00024280        0x4 c:/program files (x86)/microsemi/softconsole v3.4/sourcery-g++/bin/../lib/gcc/arm-none-eabi/4.4.1/thumb2/crti.o
                0x00024280                _init
 .init          0x00024284        0x8 c:/program files (x86)/microsemi/softconsole v3.4/sourcery-g++/bin/../lib/gcc/arm-none-eabi/4.4.1/thumb2/crtn.o
 *(.fini)
 .fini          0x0002428c        0x4 c:/program files (x86)/microsemi/softconsole v3.4/sourcery-g++/bin/../lib/gcc/arm-none-eabi/4.4.1/thumb2/crti.o
                0x0002428c                _fini
 .fini          0x00024290        0x8 c:/program files (x86)/microsemi/softconsole v3.4/sourcery-g++/bin/../lib/gcc/arm-none-eabi/4.4.1/thumb2/crtn.o
                0x00024298                PROVIDE (__preinit_array_start, .)
 *(.preinit_array)
                0x00024298                PROVIDE (__preinit_array_end, .)
                0x00024298                PROVIDE (__init_array_start, .)
 *(SORT(.init_array.*))
 *(.init_array)
 .init_array    0x00024298        0x4 c:/program files (x86)/microsemi/softconsole v3.4/sourcery-g++/bin/../lib/gcc/arm-none-eabi/4.4.1/thumb2/crtbegin.o
                0x0002429c                PROVIDE (__init_array_end, .)
                0x0002429c                PROVIDE (__fini_array_start, .)
 *(.fini_array)
 .fini_array    0x0002429c        0x4 c:/program files (x86)/microsemi/softconsole v3.4/sourcery-g++/bin/../lib/gcc/arm-none-eabi/4.4.1/thumb2/crtbegin.o
 *(SORT(.fini_array.*))
                0x000242a0                PROVIDE (__fini_array_end, .)
                0x000242a0                __exidx_start = .

.v4_bx          0x000242a0        0x0 load address 0x600242a0
 .v4_bx         0x00000000        0x0 linker stubs

.ARM.exidx      0x20000000        0x8 load address 0x600242a0
 *(.ARM.exidx* .gnu.linkonce.armexidx.*)
 .ARM.exidx     0x20000000        0x8 c:/program files (x86)/microsemi/softconsole v3.4/sourcery-g++/bin/../lib/gcc/arm-none-eabi/4.4.1/thumb2\libgcc.a(_divdi3.o)
 .ARM.exidx     0x20000008        0x0 c:/program files (x86)/microsemi/softconsole v3.4/sourcery-g++/bin/../lib/gcc/arm-none-eabi/4.4.1/thumb2\libgcc.a(_udivdi3.o)
                                  0x8 (size before relaxing)
                0x20000008                __exidx_end = .
                0x20000008                _etext = .

.data           0x20000008      0x5e4 load address 0x600242a8
                0x600242a8                __data_load = LOADADDR (.data)
                0x600242a8                _sidata = LOADADDR (.data)
                0x20000008                __data_start = .
                0x20000008                _sdata = .
 *(.jcr)
 .jcr           0x20000008        0x0 c:/program files (x86)/microsemi/softconsole v3.4/sourcery-g++/bin/../lib/gcc/arm-none-eabi/4.4.1/thumb2/crtbegin.o
 .jcr           0x20000008        0x4 c:/program files (x86)/microsemi/softconsole v3.4/sourcery-g++/bin/../lib/gcc/arm-none-eabi/4.4.1/thumb2/crtend.o
 *(.got.plt)
 *(.got)
 *(.shdata)
 *(.data .data.* .gnu.linkonce.d.*)
 .data          0x2000000c        0x0 c:/program files (x86)/microsemi/softconsole v3.4/sourcery-g++/bin/../lib/gcc/arm-none-eabi/4.4.1/thumb2/crti.o
 .data          0x2000000c        0x4 c:/program files (x86)/microsemi/softconsole v3.4/sourcery-g++/bin/../lib/gcc/arm-none-eabi/4.4.1/thumb2/crtbegin.o
                0x2000000c                __dso_handle
 .data          0x20000010        0x0 ./ParTest.o
 .data          0x20000010        0x0 ./main-full.o
 .data          0x20000010        0x0 ./uIP_Task.o
 .data          0x20000010        0x0 ./uart_task.o
 .data          0x20000010        0x0 ./WebServer/httpd-cgi.o
 .data.calls    0x20000010       0x20 ./WebServer/httpd-cgi.o
 .data.states   0x20000030       0x24 ./WebServer/httpd-cgi.o
 .data          0x20000054        0x0 ./MicroSemi_Code/hal/CortexM3/cortex_nvic.o
 .data          0x20000054        0x0 ./MicroSemi_Code/hal/CortexM3/GNU/hal.o
 .data          0x20000054        0x0 ./MicroSemi_Code/hal/CortexM3/GNU/hal_assert.o
 .data          0x20000054        0x0 ./MicroSemi_Code/hal/CortexM3/GNU/hw_reg_access.o
 .data          0x20000054        0x0 ./MicroSemi_Code/drivers_config/mss_ace/ace_config.o
 .data.g_ace_adc_config
                0x20000054        0x8 ./MicroSemi_Code/drivers_config/mss_ace/ace_config.o
                0x20000054                g_ace_adc_config
 .data.g_ace_channel_desc_table
                0x2000005c       0x30 ./MicroSemi_Code/drivers_config/mss_ace/ace_config.o
                0x2000005c                g_ace_channel_desc_table
 .data.g_sse_sequences_desc_table
                0x2000008c       0x28 ./MicroSemi_Code/drivers_config/mss_ace/ace_config.o
                0x2000008c                g_sse_sequences_desc_table
 .data          0x200000b4        0x0 ./MicroSemi_Code/drivers/mss_uart/mss_uart.o
 .data          0x200000b4        0x0 ./MicroSemi_Code/drivers/mss_i2c/mss_i2c.o
 .data          0x200000b4        0x0 ./MicroSemi_Code/drivers/mss_gpio/mss_gpio.o
 .data          0x200000b4        0x0 ./MicroSemi_Code/drivers/mss_ethernet_mac/crc32.o
 .data          0x200000b4        0x0 ./MicroSemi_Code/drivers/mss_ethernet_mac/mss_ethernet_mac.o
 .data          0x200000b4        0x0 ./MicroSemi_Code/drivers/mss_ethernet_mac/phy.o
 .data          0x200000b4        0x0 ./MicroSemi_Code/drivers/mss_ace/ace_convert.o
 .data          0x200000b4        0x0 ./MicroSemi_Code/drivers/mss_ace/ace_flags.o
 .data          0x200000b4        0x0 ./MicroSemi_Code/drivers/mss_ace/ace_sse.o
 .data          0x200000b4        0x0 ./MicroSemi_Code/drivers/mss_ace/ace_transform.o
 .data          0x200000b4        0x0 ./MicroSemi_Code/drivers/mss_ace/mss_ace.o
 .data          0x200000b4        0x0 ./MicroSemi_Code/CMSIS/brownout_isr.o
 .data          0x200000b4        0x0 ./MicroSemi_Code/CMSIS/core_cm3.o
 .data          0x200000b4        0x0 ./MicroSemi_Code/CMSIS/system_a2fxxxm3.o
 .data.SystemFrequency
                0x200000b4        0x4 ./MicroSemi_Code/CMSIS/system_a2fxxxm3.o
                0x200000b4                SystemFrequency
 .data.SystemCoreClock
                0x200000b8        0x4 ./MicroSemi_Code/CMSIS/system_a2fxxxm3.o
                0x200000b8                SystemCoreClock
 .data.g_FrequencyPCLK0
                0x200000bc        0x4 ./MicroSemi_Code/CMSIS/system_a2fxxxm3.o
                0x200000bc                g_FrequencyPCLK0
 .data.g_FrequencyPCLK1
                0x200000c0        0x4 ./MicroSemi_Code/CMSIS/system_a2fxxxm3.o
                0x200000c0                g_FrequencyPCLK1
 .data.g_FrequencyACE
                0x200000c4        0x4 ./MicroSemi_Code/CMSIS/system_a2fxxxm3.o
                0x200000c4                g_FrequencyACE
 .data.g_FrequencyFPGA
                0x200000c8        0x4 ./MicroSemi_Code/CMSIS/system_a2fxxxm3.o
                0x200000c8                g_FrequencyFPGA
 .data          0x200000cc        0x0 ./MicroSemi_Code/CMSIS/startup_gcc/newlib_stubs.o
 .data.environ  0x200000cc        0x4 ./MicroSemi_Code/CMSIS/startup_gcc/newlib_stubs.o
                0x200000cc                environ
 .data          0x200000d0        0x0 ./MicroSemi_Code/CMSIS/startup_gcc/startup_a2fxxxm3.o
 .data          0x200000d0        0x0 ./Helpers/uart_helper.o
 .data          0x200000d0        0x0 ./FreeTCPIP/psock.o
 .data          0x200000d0        0x0 ./FreeTCPIP/timer.o
 .data          0x200000d0        0x0 ./FreeTCPIP/uip.o
 .data          0x200000d0        0x0 ./FreeTCPIP/uip_arp.o
 .data          0x200000d0        0x0 ./FreeTCPIP/http_Common/http-strings.o
 .data          0x200000d0        0x0 ./FreeTCPIP/http_Common/httpd-fs.o
 .data          0x200000d0        0x0 ./FreeTCPIP/http_Common/httpd.o
 .data          0x200000d0        0x0 ./FreeRTOS_Source/list.o
 .data          0x200000d0        0x0 ./FreeRTOS_Source/queue.o
 .data          0x200000d0        0x0 ./FreeRTOS_Source/tasks.o
 .data          0x200000d0        0x0 ./FreeRTOS_Source/timers.o
 .data          0x200000d0        0x0 ./FreeRTOS_Source/portable/MemMang/heap_2.o
 .data.xFreeBytesRemaining
                0x200000d0        0x4 ./FreeRTOS_Source/portable/MemMang/heap_2.o
 .data          0x200000d4        0x0 ./FreeRTOS_Source/portable/GCC/ARM_CM3/port.o
 .data.uxCriticalNesting
                0x200000d4        0x4 ./FreeRTOS_Source/portable/GCC/ARM_CM3/port.o
 .data          0x200000d8        0x0 c:/program files (x86)/microsemi/softconsole v3.4/sourcery-g++/bin/../lib/gcc/arm-none-eabi/4.4.1/thumb2\libgcc.a(_arm_addsubdf3.o)
 .data          0x200000d8        0x0 c:/program files (x86)/microsemi/softconsole v3.4/sourcery-g++/bin/../lib/gcc/arm-none-eabi/4.4.1/thumb2\libgcc.a(_arm_muldivdf3.o)
 .data          0x200000d8        0x0 c:/program files (x86)/microsemi/softconsole v3.4/sourcery-g++/bin/../lib/gcc/arm-none-eabi/4.4.1/../../../../arm-none-eabi/lib/thumb2\libc.a(lib_a-clock.o)
 .data          0x200000d8        0x0 c:/program files (x86)/microsemi/softconsole v3.4/sourcery-g++/bin/../lib/gcc/arm-none-eabi/4.4.1/../../../../arm-none-eabi/lib/thumb2\libc.a(lib_a-efgcvt.o)
 .data          0x200000d8        0x0 c:/program files (x86)/microsemi/softconsole v3.4/sourcery-g++/bin/../lib/gcc/arm-none-eabi/4.4.1/../../../../arm-none-eabi/lib/thumb2\libc.a(lib_a-errno.o)
 .data          0x200000d8       0xf4 c:/program files (x86)/microsemi/softconsole v3.4/sourcery-g++/bin/../lib/gcc/arm-none-eabi/4.4.1/../../../../arm-none-eabi/lib/thumb2\libc.a(lib_a-impure.o)
                0x200000d8                _impure_ptr
 .data          0x200001cc        0x0 c:/program files (x86)/microsemi/softconsole v3.4/sourcery-g++/bin/../lib/gcc/arm-none-eabi/4.4.1/../../../../arm-none-eabi/lib/thumb2\libc.a(lib_a-init.o)
 .data          0x200001cc        0x0 c:/program files (x86)/microsemi/softconsole v3.4/sourcery-g++/bin/../lib/gcc/arm-none-eabi/4.4.1/../../../../arm-none-eabi/lib/thumb2\libc.a(lib_a-memcpy.o)
 .data          0x200001cc        0x0 c:/program files (x86)/microsemi/softconsole v3.4/sourcery-g++/bin/../lib/gcc/arm-none-eabi/4.4.1/../../../../arm-none-eabi/lib/thumb2\libc.a(lib_a-memset.o)
 .data          0x200001cc        0x0 c:/program files (x86)/microsemi/softconsole v3.4/sourcery-g++/bin/../lib/gcc/arm-none-eabi/4.4.1/../../../../arm-none-eabi/lib/thumb2\libc.a(lib_a-snprintf.o)
 .data          0x200001cc        0x0 c:/program files (x86)/microsemi/softconsole v3.4/sourcery-g++/bin/../lib/gcc/arm-none-eabi/4.4.1/../../../../arm-none-eabi/lib/thumb2\libc.a(lib_a-sprintf.o)
 .data          0x200001cc        0x0 c:/program files (x86)/microsemi/softconsole v3.4/sourcery-g++/bin/../lib/gcc/arm-none-eabi/4.4.1/../../../../arm-none-eabi/lib/thumb2\libc.a(lib_a-strcat.o)
 .data          0x200001cc        0x0 c:/program files (x86)/microsemi/softconsole v3.4/sourcery-g++/bin/../lib/gcc/arm-none-eabi/4.4.1/../../../../arm-none-eabi/lib/thumb2\libc.a(lib_a-strchr.o)
 .data          0x200001cc        0x0 c:/program files (x86)/microsemi/softconsole v3.4/sourcery-g++/bin/../lib/gcc/arm-none-eabi/4.4.1/../../../../arm-none-eabi/lib/thumb2\libc.a(lib_a-strcpy.o)
 .data          0x200001cc        0x0 c:/program files (x86)/microsemi/softconsole v3.4/sourcery-g++/bin/../lib/gcc/arm-none-eabi/4.4.1/../../../../arm-none-eabi/lib/thumb2\libc.a(lib_a-strlen.o)
 .data          0x200001cc        0x0 c:/program files (x86)/microsemi/softconsole v3.4/sourcery-g++/bin/../lib/gcc/arm-none-eabi/4.4.1/../../../../arm-none-eabi/lib/thumb2\libc.a(lib_a-strncmp.o)
 .data          0x200001cc        0x0 c:/program files (x86)/microsemi/softconsole v3.4/sourcery-g++/bin/../lib/gcc/arm-none-eabi/4.4.1/../../../../arm-none-eabi/lib/thumb2\libc.a(lib_a-strncpy.o)
 .data          0x200001cc        0x0 c:/program files (x86)/microsemi/softconsole v3.4/sourcery-g++/bin/../lib/gcc/arm-none-eabi/4.4.1/../../../../arm-none-eabi/lib/thumb2\libc.a(lib_a-strrchr.o)
 .data          0x200001cc        0x0 c:/program files (x86)/microsemi/softconsole v3.4/sourcery-g++/bin/../lib/gcc/arm-none-eabi/4.4.1/../../../../arm-none-eabi/lib/thumb2\libc.a(lib_a-strstr.o)
 .data          0x200001cc        0x0 c:/program files (x86)/microsemi/softconsole v3.4/sourcery-g++/bin/../lib/gcc/arm-none-eabi/4.4.1/../../../../arm-none-eabi/lib/thumb2\libc.a(lib_a-svfprintf.o)
 .data          0x200001cc        0x0 c:/program files (x86)/microsemi/softconsole v3.4/sourcery-g++/bin/../lib/gcc/arm-none-eabi/4.4.1/../../../../arm-none-eabi/lib/thumb2\libc.a(lib_a-timesr.o)
 .data          0x200001cc        0x0 c:/program files (x86)/microsemi/softconsole v3.4/sourcery-g++/bin/../lib/gcc/arm-none-eabi/4.4.1/../../../../arm-none-eabi/lib/thumb2\libc.a(lib_a-dtoa.o)
 .data          0x200001cc        0x0 c:/program files (x86)/microsemi/softconsole v3.4/sourcery-g++/bin/../lib/gcc/arm-none-eabi/4.4.1/../../../../arm-none-eabi/lib/thumb2\libc.a(lib_a-ecvtbuf.o)
 .data          0x200001cc        0x0 c:/program files (x86)/microsemi/softconsole v3.4/sourcery-g++/bin/../lib/gcc/arm-none-eabi/4.4.1/../../../../arm-none-eabi/lib/thumb2\libc.a(lib_a-freer.o)
 .data          0x200001cc       0x10 c:/program files (x86)/microsemi/softconsole v3.4/sourcery-g++/bin/../lib/gcc/arm-none-eabi/4.4.1/../../../../arm-none-eabi/lib/thumb2\libc.a(lib_a-locale.o)
                0x200001cc                __mb_cur_max
                0x200001d0                __lc_ctype
 .data          0x200001dc        0x0 c:/program files (x86)/microsemi/softconsole v3.4/sourcery-g++/bin/../lib/gcc/arm-none-eabi/4.4.1/../../../../arm-none-eabi/lib/thumb2\libc.a(lib_a-malloc.o)
 .data          0x200001dc      0x410 c:/program files (x86)/microsemi/softconsole v3.4/sourcery-g++/bin/../lib/gcc/arm-none-eabi/4.4.1/../../../../arm-none-eabi/lib/thumb2\libc.a(lib_a-mallocr.o)
                0x200001dc                __malloc_av_
                0x200005e4                __malloc_sbrk_base
                0x200005e8                __malloc_trim_threshold
 .data          0x200005ec        0x0 c:/program files (x86)/microsemi/softconsole v3.4/sourcery-g++/bin/../lib/gcc/arm-none-eabi/4.4.1/../../../../arm-none-eabi/lib/thumb2\libc.a(lib_a-memchr.o)
 .data          0x200005ec        0x0 c:/program files (x86)/microsemi/softconsole v3.4/sourcery-g++/bin/../lib/gcc/arm-none-eabi/4.4.1/../../../../arm-none-eabi/lib/thumb2\libc.a(lib_a-memcmp.o)
 .data          0x200005ec        0x0 c:/program files (x86)/microsemi/softconsole v3.4/sourcery-g++/bin/../lib/gcc/arm-none-eabi/4.4.1/../../../../arm-none-eabi/lib/thumb2\libc.a(lib_a-memmove.o)
 .data          0x200005ec        0x0 c:/program files (x86)/microsemi/softconsole v3.4/sourcery-g++/bin/../lib/gcc/arm-none-eabi/4.4.1/../../../../arm-none-eabi/lib/thumb2\libc.a(lib_a-mlock.o)
 .data          0x200005ec        0x0 c:/program files (x86)/microsemi/softconsole v3.4/sourcery-g++/bin/../lib/gcc/arm-none-eabi/4.4.1/../../../../arm-none-eabi/lib/thumb2\libc.a(lib_a-mprec.o)
 .data          0x200005ec        0x0 c:/program files (x86)/microsemi/softconsole v3.4/sourcery-g++/bin/../lib/gcc/arm-none-eabi/4.4.1/../../../../arm-none-eabi/lib/thumb2\libc.a(lib_a-reallocr.o)
 .data          0x200005ec        0x0 c:/program files (x86)/microsemi/softconsole v3.4/sourcery-g++/bin/../lib/gcc/arm-none-eabi/4.4.1/../../../../arm-none-eabi/lib/thumb2\libc.a(lib_a-s_isinfd.o)
 .data          0x200005ec        0x0 c:/program files (x86)/microsemi/softconsole v3.4/sourcery-g++/bin/../lib/gcc/arm-none-eabi/4.4.1/../../../../arm-none-eabi/lib/thumb2\libc.a(lib_a-s_isnand.o)
 .data          0x200005ec        0x0 c:/program files (x86)/microsemi/softconsole v3.4/sourcery-g++/bin/../lib/gcc/arm-none-eabi/4.4.1/../../../../arm-none-eabi/lib/thumb2\libc.a(lib_a-sbrkr.o)
 .data          0x200005ec        0x0 c:/program files (x86)/microsemi/softconsole v3.4/sourcery-g++/bin/../lib/gcc/arm-none-eabi/4.4.1/../../../../arm-none-eabi/lib/thumb2\libc.a(lib_a-strcmp.o)
 .data          0x200005ec        0x0 c:/program files (x86)/microsemi/softconsole v3.4/sourcery-g++/bin/../lib/gcc/arm-none-eabi/4.4.1/../../../../arm-none-eabi/lib/thumb2\libc.a(lib_a-callocr.o)
 .data          0x200005ec        0x0 c:/program files (x86)/microsemi/softconsole v3.4/sourcery-g++/bin/../lib/gcc/arm-none-eabi/4.4.1/../../../../arm-none-eabi/lib/thumb2\libc.a(lib_a-reent.o)
 .data          0x200005ec        0x0 c:/program files (x86)/microsemi/softconsole v3.4/sourcery-g++/bin/../lib/gcc/arm-none-eabi/4.4.1/thumb2\libgcc.a(_udivsi3.o)
 .data          0x200005ec        0x0 c:/program files (x86)/microsemi/softconsole v3.4/sourcery-g++/bin/../lib/gcc/arm-none-eabi/4.4.1/thumb2\libgcc.a(_dvmd_tls.o)
 .data          0x200005ec        0x0 c:/program files (x86)/microsemi/softconsole v3.4/sourcery-g++/bin/../lib/gcc/arm-none-eabi/4.4.1/thumb2\libgcc.a(_arm_cmpdf2.o)
 .data          0x200005ec        0x0 c:/program files (x86)/microsemi/softconsole v3.4/sourcery-g++/bin/../lib/gcc/arm-none-eabi/4.4.1/thumb2\libgcc.a(_arm_fixdfsi.o)
 .data          0x200005ec        0x0 c:/program files (x86)/microsemi/softconsole v3.4/sourcery-g++/bin/../lib/gcc/arm-none-eabi/4.4.1/thumb2\libgcc.a(_aeabi_uldivmod.o)
 .data          0x200005ec        0x0 c:/program files (x86)/microsemi/softconsole v3.4/sourcery-g++/bin/../lib/gcc/arm-none-eabi/4.4.1/thumb2\libgcc.a(bpabi.o)
 .data          0x200005ec        0x0 c:/program files (x86)/microsemi/softconsole v3.4/sourcery-g++/bin/../lib/gcc/arm-none-eabi/4.4.1/thumb2\libgcc.a(_divdi3.o)
 .data          0x200005ec        0x0 c:/program files (x86)/microsemi/softconsole v3.4/sourcery-g++/bin/../lib/gcc/arm-none-eabi/4.4.1/thumb2\libgcc.a(_udivdi3.o)
 .data          0x200005ec        0x0 c:/program files (x86)/microsemi/softconsole v3.4/sourcery-g++/bin/../lib/gcc/arm-none-eabi/4.4.1/thumb2/crtend.o
 .data          0x200005ec        0x0 c:/program files (x86)/microsemi/softconsole v3.4/sourcery-g++/bin/../lib/gcc/arm-none-eabi/4.4.1/thumb2/crtn.o
                0x200005ec                . = ALIGN (0x4)
                0x200005ec                _edata = .

.bss            0x200005ec     0xc6d4 load address 0x6002488c
                0x200005ec                __bss_start__ = .
                0x200005ec                _sbss = .
 *(.shbss)
 *(.bss .bss.* .gnu.linkonce.b.*)
 .bss           0x200005ec        0x0 c:/program files (x86)/microsemi/softconsole v3.4/sourcery-g++/bin/../lib/gcc/arm-none-eabi/4.4.1/thumb2/crti.o
 .bss           0x200005ec        0x1 c:/program files (x86)/microsemi/softconsole v3.4/sourcery-g++/bin/../lib/gcc/arm-none-eabi/4.4.1/thumb2/crtbegin.o
 .bss           0x200005ed        0x0 ./ParTest.o
 *fill*         0x200005ed        0x3 00
 .bss.ulGPIOState
                0x200005f0        0x4 ./ParTest.o
 .bss           0x200005f4        0x0 ./main-full.o
 .bss.xQueue    0x200005f4        0x4 ./main-full.o
 .bss.xCheckTimer
                0x200005f8        0x4 ./main-full.o
 .bss.pcStatusMessage
                0x200005fc        0x4 ./main-full.o
 .bss.key       0x20000600        0x1 ./main-full.o
                0x20000600                key
 .bss.rx_size   0x20000601        0x1 ./main-full.o
                0x20000601                rx_size
 *fill*         0x20000602        0x2 00
 .bss.htTaskHndl
                0x20000604        0x4 ./main-full.o
                0x20000604                htTaskHndl
 .bss           0x20000608        0x0 ./uIP_Task.o
 .bss.xEMACEventQueue
                0x20000608        0x4 ./uIP_Task.o
                0x20000608                xEMACEventQueue
 .bss           0x2000060c        0x0 ./uart_task.o
 .bss           0x2000060c        0x0 ./WebServer/httpd-cgi.o
 .bss.cCountBuf
                0x2000060c       0x80 ./WebServer/httpd-cgi.o
 .bss.lRefreshCount
                0x2000068c        0x4 ./WebServer/httpd-cgi.o
                0x2000068c                lRefreshCount
 .bss.buf.4125  0x20000690        0xc ./WebServer/httpd-cgi.o
 .bss           0x2000069c        0x0 ./MicroSemi_Code/hal/CortexM3/cortex_nvic.o
 .bss           0x2000069c        0x0 ./MicroSemi_Code/hal/CortexM3/GNU/hal.o
 .bss           0x2000069c        0x0 ./MicroSemi_Code/hal/CortexM3/GNU/hal_assert.o
 .bss           0x2000069c        0x0 ./MicroSemi_Code/hal/CortexM3/GNU/hw_reg_access.o
 .bss           0x2000069c        0x0 ./MicroSemi_Code/drivers_config/mss_ace/ace_config.o
 .bss           0x2000069c        0x0 ./MicroSemi_Code/drivers/mss_uart/mss_uart.o
 .bss           0x2000069c        0x0 ./MicroSemi_Code/drivers/mss_i2c/mss_i2c.o
 .bss           0x2000069c        0x0 ./MicroSemi_Code/drivers/mss_gpio/mss_gpio.o
 .bss           0x2000069c        0x0 ./MicroSemi_Code/drivers/mss_ethernet_mac/crc32.o
 .bss           0x2000069c        0x0 ./MicroSemi_Code/drivers/mss_ethernet_mac/mss_ethernet_mac.o
 .bss.NULL_buffer
                0x2000069c        0x4 ./MicroSemi_Code/drivers/mss_ethernet_mac/mss_ethernet_mac.o
 .bss.NULL_callback
                0x200006a0        0x4 ./MicroSemi_Code/drivers/mss_ethernet_mac/mss_ethernet_mac.o
 .bss.uip_buf   0x200006a4        0x4 ./MicroSemi_Code/drivers/mss_ethernet_mac/mss_ethernet_mac.o
                0x200006a4                uip_buf
 .bss.xMACBuffers
                0x200006a8     0x28b0 ./MicroSemi_Code/drivers/mss_ethernet_mac/mss_ethernet_mac.o
 .bss.ucMACBufferInUse
                0x20002f58        0x8 ./MicroSemi_Code/drivers/mss_ethernet_mac/mss_ethernet_mac.o
 .bss           0x20002f60        0x0 ./MicroSemi_Code/drivers/mss_ethernet_mac/phy.o
 .bss           0x20002f60        0x0 ./MicroSemi_Code/drivers/mss_ace/ace_convert.o
 .bss.g_gdec_lut
                0x20002f60        0xc ./MicroSemi_Code/drivers/mss_ace/ace_convert.o
 .bss.channel_type_lut_h
                0x20002f6c        0x4 ./MicroSemi_Code/drivers/mss_ace/ace_convert.o
 .bss           0x20002f70        0x0 ./MicroSemi_Code/drivers/mss_ace/ace_flags.o
 .bss           0x20002f70        0x0 ./MicroSemi_Code/drivers/mss_ace/ace_sse.o
 .bss           0x20002f70        0x0 ./MicroSemi_Code/drivers/mss_ace/ace_transform.o
 .bss           0x20002f70        0x0 ./MicroSemi_Code/drivers/mss_ace/mss_ace.o
 .bss           0x20002f70        0x0 ./MicroSemi_Code/CMSIS/brownout_isr.o
 .bss           0x20002f70        0x0 ./MicroSemi_Code/CMSIS/core_cm3.o
 .bss           0x20002f70        0x0 ./MicroSemi_Code/CMSIS/system_a2fxxxm3.o
 .bss           0x20002f70        0x0 ./MicroSemi_Code/CMSIS/startup_gcc/newlib_stubs.o
 .bss.g_stdio_uart_init_done
                0x20002f70        0x4 ./MicroSemi_Code/CMSIS/startup_gcc/newlib_stubs.o
 .bss.__env     0x20002f74        0x4 ./MicroSemi_Code/CMSIS/startup_gcc/newlib_stubs.o
                0x20002f74                __env
 .bss.heap_end.3594
                0x20002f78        0x4 ./MicroSemi_Code/CMSIS/startup_gcc/newlib_stubs.o
 .bss           0x20002f7c        0x0 ./MicroSemi_Code/CMSIS/startup_gcc/startup_a2fxxxm3.o
 .bss           0x20002f7c        0x0 ./Helpers/uart_helper.o
 .bss           0x20002f7c        0x0 ./FreeTCPIP/psock.o
 .bss           0x20002f7c        0x0 ./FreeTCPIP/timer.o
 .bss           0x20002f7c        0x0 ./FreeTCPIP/uip.o
 .bss.uip_ethaddr
                0x20002f7c        0x8 ./FreeTCPIP/uip.o
                0x20002f7c                uip_ethaddr
 .bss.ipid      0x20002f84        0x2 ./FreeTCPIP/uip.o
 *fill*         0x20002f86        0x2 00
 .bss.iss       0x20002f88        0x4 ./FreeTCPIP/uip.o
 .bss.lastport  0x20002f8c        0x2 ./FreeTCPIP/uip.o
 .bss.c         0x20002f8e        0x1 ./FreeTCPIP/uip.o
 .bss.opt       0x20002f8f        0x1 ./FreeTCPIP/uip.o
 .bss.tmp16     0x20002f90        0x2 ./FreeTCPIP/uip.o
 .bss           0x20002f92        0x0 ./FreeTCPIP/uip_arp.o
 *fill*         0x20002f92        0x2 00
 .bss.arp_table
                0x20002f94       0x60 ./FreeTCPIP/uip_arp.o
 .bss.ipaddr    0x20002ff4        0x4 ./FreeTCPIP/uip_arp.o
 .bss.i         0x20002ff8        0x1 ./FreeTCPIP/uip_arp.o
 .bss.c         0x20002ff9        0x1 ./FreeTCPIP/uip_arp.o
 .bss.arptime   0x20002ffa        0x1 ./FreeTCPIP/uip_arp.o
 .bss.tmpage    0x20002ffb        0x1 ./FreeTCPIP/uip_arp.o
 .bss           0x20002ffc        0x0 ./FreeTCPIP/http_Common/http-strings.o
 .bss           0x20002ffc        0x0 ./FreeTCPIP/http_Common/httpd-fs.o
 .bss.count     0x20002ffc       0x10 ./FreeTCPIP/http_Common/httpd-fs.o
 .bss           0x2000300c        0x0 ./FreeTCPIP/http_Common/httpd.o
 .bss           0x2000300c        0x0 ./FreeRTOS_Source/list.o
 .bss           0x2000300c        0x0 ./FreeRTOS_Source/queue.o
 .bss           0x2000300c        0x0 ./FreeRTOS_Source/tasks.o
 .bss.pxCurrentTCB
                0x2000300c        0x4 ./FreeRTOS_Source/tasks.o
                0x2000300c                pxCurrentTCB
 .bss.pxReadyTasksLists
                0x20003010       0x64 ./FreeRTOS_Source/tasks.o
 .bss.xDelayedTaskList1
                0x20003074       0x14 ./FreeRTOS_Source/tasks.o
 .bss.xDelayedTaskList2
                0x20003088       0x14 ./FreeRTOS_Source/tasks.o
 .bss.pxDelayedTaskList
                0x2000309c        0x4 ./FreeRTOS_Source/tasks.o
 .bss.pxOverflowDelayedTaskList
                0x200030a0        0x4 ./FreeRTOS_Source/tasks.o
 .bss.xPendingReadyList
                0x200030a4       0x14 ./FreeRTOS_Source/tasks.o
 .bss.xTasksWaitingTermination
                0x200030b8       0x14 ./FreeRTOS_Source/tasks.o
 .bss.uxDeletedTasksWaitingCleanUp
                0x200030cc        0x4 ./FreeRTOS_Source/tasks.o
 .bss.xSuspendedTaskList
                0x200030d0       0x14 ./FreeRTOS_Source/tasks.o
 .bss.uxCurrentNumberOfTasks
                0x200030e4        0x4 ./FreeRTOS_Source/tasks.o
 .bss.xTickCount
                0x200030e8        0x4 ./FreeRTOS_Source/tasks.o
 .bss.uxTopReadyPriority
                0x200030ec        0x4 ./FreeRTOS_Source/tasks.o
 .bss.xSchedulerRunning
                0x200030f0        0x4 ./FreeRTOS_Source/tasks.o
 .bss.uxPendedTicks
                0x200030f4        0x4 ./FreeRTOS_Source/tasks.o
 .bss.xYieldPending
                0x200030f8        0x4 ./FreeRTOS_Source/tasks.o
 .bss.xNumOfOverflows
                0x200030fc        0x4 ./FreeRTOS_Source/tasks.o
 .bss.uxTaskNumber
                0x20003100        0x4 ./FreeRTOS_Source/tasks.o
 .bss.xNextTaskUnblockTime
                0x20003104        0x4 ./FreeRTOS_Source/tasks.o
 .bss.xIdleTaskHandle
                0x20003108        0x4 ./FreeRTOS_Source/tasks.o
 .bss.uxSchedulerSuspended
                0x2000310c        0x4 ./FreeRTOS_Source/tasks.o
 .bss.ulTaskSwitchedInTime
                0x20003110        0x4 ./FreeRTOS_Source/tasks.o
 .bss.ulTotalRunTime
                0x20003114        0x4 ./FreeRTOS_Source/tasks.o
 .bss           0x20003118        0x0 ./FreeRTOS_Source/timers.o
 .bss.xActiveTimerList1
                0x20003118       0x14 ./FreeRTOS_Source/timers.o
 .bss.xActiveTimerList2
                0x2000312c       0x14 ./FreeRTOS_Source/timers.o
 .bss.pxCurrentTimerList
                0x20003140        0x4 ./FreeRTOS_Source/timers.o
 .bss.pxOverflowTimerList
                0x20003144        0x4 ./FreeRTOS_Source/timers.o
 .bss.xTimerQueue
                0x20003148        0x4 ./FreeRTOS_Source/timers.o
 .bss.xTimerTaskHandle
                0x2000314c        0x4 ./FreeRTOS_Source/timers.o
 .bss.xLastTime.2594
                0x20003150        0x4 ./FreeRTOS_Source/timers.o
 .bss           0x20003154        0x0 ./FreeRTOS_Source/portable/MemMang/heap_2.o
 .bss.ucHeap    0x20003154     0x7800 ./FreeRTOS_Source/portable/MemMang/heap_2.o
 .bss.xStart    0x2000a954        0x8 ./FreeRTOS_Source/portable/MemMang/heap_2.o
 .bss.xEnd      0x2000a95c        0x8 ./FreeRTOS_Source/portable/MemMang/heap_2.o
 .bss.xHeapHasBeenInitialised.2199
                0x2000a964        0x4 ./FreeRTOS_Source/portable/MemMang/heap_2.o
 .bss           0x2000a968        0x0 ./FreeRTOS_Source/portable/GCC/ARM_CM3/port.o
 .bss.ucMaxSysCallPriority
                0x2000a968        0x1 ./FreeRTOS_Source/portable/GCC/ARM_CM3/port.o
 *fill*         0x2000a969        0x3 00
 .bss.ulMaxPRIGROUPValue
                0x2000a96c        0x4 ./FreeRTOS_Source/portable/GCC/ARM_CM3/port.o
 .bss           0x2000a970        0x0 c:/program files (x86)/microsemi/softconsole v3.4/sourcery-g++/bin/../lib/gcc/arm-none-eabi/4.4.1/thumb2\libgcc.a(_arm_addsubdf3.o)
 .bss           0x2000a970        0x0 c:/program files (x86)/microsemi/softconsole v3.4/sourcery-g++/bin/../lib/gcc/arm-none-eabi/4.4.1/thumb2\libgcc.a(_arm_muldivdf3.o)
 .bss           0x2000a970        0x0 c:/program files (x86)/microsemi/softconsole v3.4/sourcery-g++/bin/../lib/gcc/arm-none-eabi/4.4.1/../../../../arm-none-eabi/lib/thumb2\libc.a(lib_a-clock.o)
 .bss           0x2000a970        0x0 c:/program files (x86)/microsemi/softconsole v3.4/sourcery-g++/bin/../lib/gcc/arm-none-eabi/4.4.1/../../../../arm-none-eabi/lib/thumb2\libc.a(lib_a-efgcvt.o)
 .bss           0x2000a970        0x0 c:/program files (x86)/microsemi/softconsole v3.4/sourcery-g++/bin/../lib/gcc/arm-none-eabi/4.4.1/../../../../arm-none-eabi/lib/thumb2\libc.a(lib_a-errno.o)
 .bss           0x2000a970        0x0 c:/program files (x86)/microsemi/softconsole v3.4/sourcery-g++/bin/../lib/gcc/arm-none-eabi/4.4.1/../../../../arm-none-eabi/lib/thumb2\libc.a(lib_a-impure.o)
 .bss           0x2000a970        0x0 c:/program files (x86)/microsemi/softconsole v3.4/sourcery-g++/bin/../lib/gcc/arm-none-eabi/4.4.1/../../../../arm-none-eabi/lib/thumb2\libc.a(lib_a-init.o)
 .bss           0x2000a970        0x0 c:/program files (x86)/microsemi/softconsole v3.4/sourcery-g++/bin/../lib/gcc/arm-none-eabi/4.4.1/../../../../arm-none-eabi/lib/thumb2\libc.a(lib_a-memcpy.o)
 .bss           0x2000a970        0x0 c:/program files (x86)/microsemi/softconsole v3.4/sourcery-g++/bin/../lib/gcc/arm-none-eabi/4.4.1/../../../../arm-none-eabi/lib/thumb2\libc.a(lib_a-memset.o)
 .bss           0x2000a970        0x0 c:/program files (x86)/microsemi/softconsole v3.4/sourcery-g++/bin/../lib/gcc/arm-none-eabi/4.4.1/../../../../arm-none-eabi/lib/thumb2\libc.a(lib_a-snprintf.o)
 .bss           0x2000a970        0x0 c:/program files (x86)/microsemi/softconsole v3.4/sourcery-g++/bin/../lib/gcc/arm-none-eabi/4.4.1/../../../../arm-none-eabi/lib/thumb2\libc.a(lib_a-sprintf.o)
 .bss           0x2000a970        0x0 c:/program files (x86)/microsemi/softconsole v3.4/sourcery-g++/bin/../lib/gcc/arm-none-eabi/4.4.1/../../../../arm-none-eabi/lib/thumb2\libc.a(lib_a-strcat.o)
 .bss           0x2000a970        0x0 c:/program files (x86)/microsemi/softconsole v3.4/sourcery-g++/bin/../lib/gcc/arm-none-eabi/4.4.1/../../../../arm-none-eabi/lib/thumb2\libc.a(lib_a-strchr.o)
 .bss           0x2000a970        0x0 c:/program files (x86)/microsemi/softconsole v3.4/sourcery-g++/bin/../lib/gcc/arm-none-eabi/4.4.1/../../../../arm-none-eabi/lib/thumb2\libc.a(lib_a-strcpy.o)
 .bss           0x2000a970        0x0 c:/program files (x86)/microsemi/softconsole v3.4/sourcery-g++/bin/../lib/gcc/arm-none-eabi/4.4.1/../../../../arm-none-eabi/lib/thumb2\libc.a(lib_a-strlen.o)
 .bss           0x2000a970        0x0 c:/program files (x86)/microsemi/softconsole v3.4/sourcery-g++/bin/../lib/gcc/arm-none-eabi/4.4.1/../../../../arm-none-eabi/lib/thumb2\libc.a(lib_a-strncmp.o)
 .bss           0x2000a970        0x0 c:/program files (x86)/microsemi/softconsole v3.4/sourcery-g++/bin/../lib/gcc/arm-none-eabi/4.4.1/../../../../arm-none-eabi/lib/thumb2\libc.a(lib_a-strncpy.o)
 .bss           0x2000a970        0x0 c:/program files (x86)/microsemi/softconsole v3.4/sourcery-g++/bin/../lib/gcc/arm-none-eabi/4.4.1/../../../../arm-none-eabi/lib/thumb2\libc.a(lib_a-strrchr.o)
 .bss           0x2000a970        0x0 c:/program files (x86)/microsemi/softconsole v3.4/sourcery-g++/bin/../lib/gcc/arm-none-eabi/4.4.1/../../../../arm-none-eabi/lib/thumb2\libc.a(lib_a-strstr.o)
 .bss           0x2000a970        0x0 c:/program files (x86)/microsemi/softconsole v3.4/sourcery-g++/bin/../lib/gcc/arm-none-eabi/4.4.1/../../../../arm-none-eabi/lib/thumb2\libc.a(lib_a-svfprintf.o)
 .bss           0x2000a970        0x0 c:/program files (x86)/microsemi/softconsole v3.4/sourcery-g++/bin/../lib/gcc/arm-none-eabi/4.4.1/../../../../arm-none-eabi/lib/thumb2\libc.a(lib_a-timesr.o)
 .bss           0x2000a970        0x0 c:/program files (x86)/microsemi/softconsole v3.4/sourcery-g++/bin/../lib/gcc/arm-none-eabi/4.4.1/../../../../arm-none-eabi/lib/thumb2\libc.a(lib_a-dtoa.o)
 .bss           0x2000a970        0x0 c:/program files (x86)/microsemi/softconsole v3.4/sourcery-g++/bin/../lib/gcc/arm-none-eabi/4.4.1/../../../../arm-none-eabi/lib/thumb2\libc.a(lib_a-ecvtbuf.o)
 .bss           0x2000a970        0x0 c:/program files (x86)/microsemi/softconsole v3.4/sourcery-g++/bin/../lib/gcc/arm-none-eabi/4.4.1/../../../../arm-none-eabi/lib/thumb2\libc.a(lib_a-freer.o)
 .bss           0x2000a970        0xc c:/program files (x86)/microsemi/softconsole v3.4/sourcery-g++/bin/../lib/gcc/arm-none-eabi/4.4.1/../../../../arm-none-eabi/lib/thumb2\libc.a(lib_a-locale.o)
                0x2000a970                __nlocale_changed
                0x2000a974                __mlocale_changed
                0x2000a978                _PathLocale
 .bss           0x2000a97c        0x0 c:/program files (x86)/microsemi/softconsole v3.4/sourcery-g++/bin/../lib/gcc/arm-none-eabi/4.4.1/../../../../arm-none-eabi/lib/thumb2\libc.a(lib_a-malloc.o)
 .bss           0x2000a97c       0x34 c:/program files (x86)/microsemi/softconsole v3.4/sourcery-g++/bin/../lib/gcc/arm-none-eabi/4.4.1/../../../../arm-none-eabi/lib/thumb2\libc.a(lib_a-mallocr.o)
                0x2000a97c                __malloc_top_pad
                0x2000a980                __malloc_current_mallinfo
                0x2000a9a8                __malloc_max_sbrked_mem
                0x2000a9ac                __malloc_max_total_mem
 .bss           0x2000a9b0        0x0 c:/program files (x86)/microsemi/softconsole v3.4/sourcery-g++/bin/../lib/gcc/arm-none-eabi/4.4.1/../../../../arm-none-eabi/lib/thumb2\libc.a(lib_a-memchr.o)
 .bss           0x2000a9b0        0x0 c:/program files (x86)/microsemi/softconsole v3.4/sourcery-g++/bin/../lib/gcc/arm-none-eabi/4.4.1/../../../../arm-none-eabi/lib/thumb2\libc.a(lib_a-memcmp.o)
 .bss           0x2000a9b0        0x0 c:/program files (x86)/microsemi/softconsole v3.4/sourcery-g++/bin/../lib/gcc/arm-none-eabi/4.4.1/../../../../arm-none-eabi/lib/thumb2\libc.a(lib_a-memmove.o)
 .bss           0x2000a9b0        0x0 c:/program files (x86)/microsemi/softconsole v3.4/sourcery-g++/bin/../lib/gcc/arm-none-eabi/4.4.1/../../../../arm-none-eabi/lib/thumb2\libc.a(lib_a-mlock.o)
 .bss           0x2000a9b0        0x0 c:/program files (x86)/microsemi/softconsole v3.4/sourcery-g++/bin/../lib/gcc/arm-none-eabi/4.4.1/../../../../arm-none-eabi/lib/thumb2\libc.a(lib_a-mprec.o)
 .bss           0x2000a9b0        0x0 c:/program files (x86)/microsemi/softconsole v3.4/sourcery-g++/bin/../lib/gcc/arm-none-eabi/4.4.1/../../../../arm-none-eabi/lib/thumb2\libc.a(lib_a-reallocr.o)
 .bss           0x2000a9b0        0x0 c:/program files (x86)/microsemi/softconsole v3.4/sourcery-g++/bin/../lib/gcc/arm-none-eabi/4.4.1/../../../../arm-none-eabi/lib/thumb2\libc.a(lib_a-s_isinfd.o)
 .bss           0x2000a9b0        0x0 c:/program files (x86)/microsemi/softconsole v3.4/sourcery-g++/bin/../lib/gcc/arm-none-eabi/4.4.1/../../../../arm-none-eabi/lib/thumb2\libc.a(lib_a-s_isnand.o)
 .bss           0x2000a9b0        0x0 c:/program files (x86)/microsemi/softconsole v3.4/sourcery-g++/bin/../lib/gcc/arm-none-eabi/4.4.1/../../../../arm-none-eabi/lib/thumb2\libc.a(lib_a-sbrkr.o)
 .bss           0x2000a9b0        0x0 c:/program files (x86)/microsemi/softconsole v3.4/sourcery-g++/bin/../lib/gcc/arm-none-eabi/4.4.1/../../../../arm-none-eabi/lib/thumb2\libc.a(lib_a-strcmp.o)
 .bss           0x2000a9b0        0x0 c:/program files (x86)/microsemi/softconsole v3.4/sourcery-g++/bin/../lib/gcc/arm-none-eabi/4.4.1/../../../../arm-none-eabi/lib/thumb2\libc.a(lib_a-callocr.o)
 .bss           0x2000a9b0        0x0 c:/program files (x86)/microsemi/softconsole v3.4/sourcery-g++/bin/../lib/gcc/arm-none-eabi/4.4.1/../../../../arm-none-eabi/lib/thumb2\libc.a(lib_a-reent.o)
 .bss           0x2000a9b0        0x0 c:/program files (x86)/microsemi/softconsole v3.4/sourcery-g++/bin/../lib/gcc/arm-none-eabi/4.4.1/thumb2\libgcc.a(_udivsi3.o)
 .bss           0x2000a9b0        0x0 c:/program files (x86)/microsemi/softconsole v3.4/sourcery-g++/bin/../lib/gcc/arm-none-eabi/4.4.1/thumb2\libgcc.a(_dvmd_tls.o)
 .bss           0x2000a9b0        0x0 c:/program files (x86)/microsemi/softconsole v3.4/sourcery-g++/bin/../lib/gcc/arm-none-eabi/4.4.1/thumb2\libgcc.a(_arm_cmpdf2.o)
 .bss           0x2000a9b0        0x0 c:/program files (x86)/microsemi/softconsole v3.4/sourcery-g++/bin/../lib/gcc/arm-none-eabi/4.4.1/thumb2\libgcc.a(_arm_fixdfsi.o)
 .bss           0x2000a9b0        0x0 c:/program files (x86)/microsemi/softconsole v3.4/sourcery-g++/bin/../lib/gcc/arm-none-eabi/4.4.1/thumb2\libgcc.a(_aeabi_uldivmod.o)
 .bss           0x2000a9b0        0x0 c:/program files (x86)/microsemi/softconsole v3.4/sourcery-g++/bin/../lib/gcc/arm-none-eabi/4.4.1/thumb2\libgcc.a(bpabi.o)
 .bss           0x2000a9b0        0x0 c:/program files (x86)/microsemi/softconsole v3.4/sourcery-g++/bin/../lib/gcc/arm-none-eabi/4.4.1/thumb2\libgcc.a(_divdi3.o)
 .bss           0x2000a9b0        0x0 c:/program files (x86)/microsemi/softconsole v3.4/sourcery-g++/bin/../lib/gcc/arm-none-eabi/4.4.1/thumb2\libgcc.a(_udivdi3.o)
 .bss           0x2000a9b0        0x0 c:/program files (x86)/microsemi/softconsole v3.4/sourcery-g++/bin/../lib/gcc/arm-none-eabi/4.4.1/thumb2/crtend.o
 .bss           0x2000a9b0        0x0 c:/program files (x86)/microsemi/softconsole v3.4/sourcery-g++/bin/../lib/gcc/arm-none-eabi/4.4.1/thumb2/crtn.o
 *(COMMON)
 COMMON         0x2000a9b0        0x2 ./main-full.o
                0x2000a9b0                std_menu
                0x2000a9b1                inMultimeter
 *fill*         0x2000a9b2        0x2 00
 COMMON         0x2000a9b4        0x8 ./WebServer/httpd-cgi.o
                0x2000a9b4                ulString
                0x2000a9b8                pcStatus
 COMMON         0x2000a9bc       0x50 ./MicroSemi_Code/drivers/mss_uart/mss_uart.o
                0x2000a9bc                g_mss_uart1
                0x2000a9e4                g_mss_uart0
 COMMON         0x2000aa0c       0xe8 ./MicroSemi_Code/drivers/mss_i2c/mss_i2c.o
                0x2000aa0c                g_mss_i2c0
                0x2000aa80                g_mss_i2c1
 COMMON         0x2000aaf4      0x134 ./MicroSemi_Code/drivers/mss_ethernet_mac/mss_ethernet_mac.o
                0x2000aaf4                g_mss_mac
 COMMON         0x2000ac28     0x208e ./FreeTCPIP/uip.o
                0x2000ac28                uip_len
                0x2000ac2c                uip_sappdata
                0x2000ac30                uip_acc32
                0x2000ac34                uip_flags
                0x2000ac38                uip_appdata
                0x2000ac3c                uip_conn
                0x2000ac40                uip_conns
                0x2000cc20                uip_listenports
                0x2000cc70                uip_draddr
                0x2000cc74                uip_stat
                0x2000ccac                uip_netmask
                0x2000ccb0                uip_hostaddr
                0x2000ccb4                uip_slen
 *fill*         0x2000ccb6        0x2 00
 COMMON         0x2000ccb8        0x4 c:/program files (x86)/microsemi/softconsole v3.4/sourcery-g++/bin/../lib/gcc/arm-none-eabi/4.4.1/../../../../arm-none-eabi/lib/thumb2\libc.a(lib_a-reent.o)
                0x2000ccb8                errno
                0x2000ccc0                . = ALIGN (0x8)
 *fill*         0x2000ccbc        0x4 00
                0x2000ccc0                __bss_end__ = .
                0x2000ccc0                _end = .
                0x2000ccc0                __end = _end
                0x2000ccc0                _ebss = .
                0x2000ccc0                PROVIDE (end, .)

.stab
 *(.stab)

.stabstr
 *(.stabstr)

.debug
 *(.debug)

.line
 *(.line)

.debug_srcinfo
 *(.debug_srcinfo)

.debug_sfnames
 *(.debug_sfnames)

.comment        0x00000000      0x637
 .comment       0x00000000       0x2b ./ParTest.o
 .comment       0x0000002b       0x2b ./main-full.o
 .comment       0x00000056       0x2b ./uIP_Task.o
 .comment       0x00000081       0x2b ./uart_task.o
 .comment       0x000000ac       0x2b ./WebServer/httpd-cgi.o
 .comment       0x000000d7       0x2b ./MicroSemi_Code/hal/CortexM3/cortex_nvic.o
 .comment       0x00000102       0x2b ./MicroSemi_Code/hal/CortexM3/GNU/hal_assert.o
 .comment       0x0000012d       0x2b ./MicroSemi_Code/drivers_config/mss_ace/ace_config.o
 .comment       0x00000158       0x2b ./MicroSemi_Code/drivers/mss_uart/mss_uart.o
 .comment       0x00000183       0x2b ./MicroSemi_Code/drivers/mss_i2c/mss_i2c.o
 .comment       0x000001ae       0x2b ./MicroSemi_Code/drivers/mss_gpio/mss_gpio.o
 .comment       0x000001d9       0x2b ./MicroSemi_Code/drivers/mss_ethernet_mac/crc32.o
 .comment       0x00000204       0x2b ./MicroSemi_Code/drivers/mss_ethernet_mac/mss_ethernet_mac.o
 .comment       0x0000022f       0x2b ./MicroSemi_Code/drivers/mss_ethernet_mac/phy.o
 .comment       0x0000025a       0x2b ./MicroSemi_Code/drivers/mss_ace/ace_convert.o
 .comment       0x00000285       0x2b ./MicroSemi_Code/drivers/mss_ace/ace_flags.o
 .comment       0x000002b0       0x2b ./MicroSemi_Code/drivers/mss_ace/ace_sse.o
 .comment       0x000002db       0x2b ./MicroSemi_Code/drivers/mss_ace/ace_transform.o
 .comment       0x00000306       0x2b ./MicroSemi_Code/drivers/mss_ace/mss_ace.o
 .comment       0x00000331       0x2b ./MicroSemi_Code/CMSIS/brownout_isr.o
 .comment       0x0000035c       0x2b ./MicroSemi_Code/CMSIS/core_cm3.o
 .comment       0x00000387       0x2b ./MicroSemi_Code/CMSIS/system_a2fxxxm3.o
 .comment       0x000003b2       0x2b ./MicroSemi_Code/CMSIS/startup_gcc/newlib_stubs.o
 .comment       0x000003dd       0x2b ./Helpers/uart_helper.o
 .comment       0x00000408       0x2b ./FreeTCPIP/psock.o
 .comment       0x00000433       0x2b ./FreeTCPIP/timer.o
 .comment       0x0000045e       0x2b ./FreeTCPIP/uip.o
 .comment       0x00000489       0x2b ./FreeTCPIP/uip_arp.o
 .comment       0x000004b4       0x2b ./FreeTCPIP/http_Common/http-strings.o
 .comment       0x000004df       0x2b ./FreeTCPIP/http_Common/httpd-fs.o
 .comment       0x0000050a       0x2b ./FreeTCPIP/http_Common/httpd.o
 .comment       0x00000535       0x2b ./FreeRTOS_Source/list.o
 .comment       0x00000560       0x2b ./FreeRTOS_Source/queue.o
 .comment       0x0000058b       0x2b ./FreeRTOS_Source/tasks.o
 .comment       0x000005b6       0x2b ./FreeRTOS_Source/timers.o
 .comment       0x000005e1       0x2b ./FreeRTOS_Source/portable/MemMang/heap_2.o
 .comment       0x0000060c       0x2b ./FreeRTOS_Source/portable/GCC/ARM_CM3/port.o

.debug_aranges  0x00000000     0x13a0
 *(.debug_aranges)
 .debug_aranges
                0x00000000       0x48 ./ParTest.o
 .debug_aranges
                0x00000048       0xb8 ./main-full.o
 .debug_aranges
                0x00000100       0x70 ./uIP_Task.o
 .debug_aranges
                0x00000170       0x98 ./WebServer/httpd-cgi.o
 .debug_aranges
                0x00000208       0x48 ./MicroSemi_Code/hal/CortexM3/cortex_nvic.o
 .debug_aranges
                0x00000250       0x20 ./MicroSemi_Code/hal/CortexM3/GNU/hal_assert.o
 .debug_aranges
                0x00000270       0xd8 ./MicroSemi_Code/drivers/mss_uart/mss_uart.o
 .debug_aranges
                0x00000348      0x128 ./MicroSemi_Code/drivers/mss_i2c/mss_i2c.o
 .debug_aranges
                0x00000470       0x60 ./MicroSemi_Code/drivers/mss_gpio/mss_gpio.o
 .debug_aranges
                0x000004d0       0x28 ./MicroSemi_Code/drivers/mss_ethernet_mac/crc32.o
 .debug_aranges
                0x000004f8      0x110 ./MicroSemi_Code/drivers/mss_ethernet_mac/mss_ethernet_mac.o
 .debug_aranges
                0x00000608       0x70 ./MicroSemi_Code/drivers/mss_ethernet_mac/phy.o
 .debug_aranges
                0x00000678       0xb0 ./MicroSemi_Code/drivers/mss_ace/ace_convert.o
 .debug_aranges
                0x00000728      0x1e8 ./MicroSemi_Code/drivers/mss_ace/ace_flags.o
 .debug_aranges
                0x00000910       0x68 ./MicroSemi_Code/drivers/mss_ace/ace_sse.o
 .debug_aranges
                0x00000978       0x58 ./MicroSemi_Code/drivers/mss_ace/ace_transform.o
 .debug_aranges
                0x000009d0       0xe0 ./MicroSemi_Code/drivers/mss_ace/mss_ace.o
 .debug_aranges
                0x00000ab0       0x20 ./MicroSemi_Code/CMSIS/brownout_isr.o
 .debug_aranges
                0x00000ad0       0xc8 ./MicroSemi_Code/CMSIS/core_cm3.o
 .debug_aranges
                0x00000b98       0x30 ./MicroSemi_Code/CMSIS/system_a2fxxxm3.o
 .debug_aranges
                0x00000bc8       0xa8 ./MicroSemi_Code/CMSIS/startup_gcc/newlib_stubs.o
 .debug_aranges
                0x00000c70       0x20 ./Helpers/uart_helper.o
 .debug_aranges
                0x00000c90       0x78 ./FreeTCPIP/psock.o
 .debug_aranges
                0x00000d08       0x40 ./FreeTCPIP/timer.o
 .debug_aranges
                0x00000d48       0xa0 ./FreeTCPIP/uip.o
 .debug_aranges
                0x00000de8       0x40 ./FreeTCPIP/uip_arp.o
 .debug_aranges
                0x00000e28       0x38 ./FreeTCPIP/http_Common/httpd-fs.o
 .debug_aranges
                0x00000e60       0x70 ./FreeTCPIP/http_Common/httpd.o
 .debug_aranges
                0x00000ed0       0x40 ./FreeRTOS_Source/list.o
 .debug_aranges
                0x00000f10      0x110 ./FreeRTOS_Source/queue.o
 .debug_aranges
                0x00001020      0x200 ./FreeRTOS_Source/tasks.o
 .debug_aranges
                0x00001220       0xc8 ./FreeRTOS_Source/timers.o
 .debug_aranges
                0x000012e8       0x40 ./FreeRTOS_Source/portable/MemMang/heap_2.o
 .debug_aranges
                0x00001328       0x78 ./FreeRTOS_Source/portable/GCC/ARM_CM3/port.o

.debug_pubnames
                0x00000000     0x2e4e
 *(.debug_pubnames)
 .debug_pubnames
                0x00000000       0x84 ./ParTest.o
 .debug_pubnames
                0x00000084      0x13a ./main-full.o
 .debug_pubnames
                0x000001be       0x73 ./uIP_Task.o
 .debug_pubnames
                0x00000231       0x5a ./WebServer/httpd-cgi.o
 .debug_pubnames
                0x0000028b       0x99 ./MicroSemi_Code/hal/CortexM3/cortex_nvic.o
 .debug_pubnames
                0x00000324       0x26 ./MicroSemi_Code/hal/CortexM3/GNU/hal_assert.o
 .debug_pubnames
                0x0000034a      0x17c ./MicroSemi_Code/drivers_config/mss_ace/ace_config.o
 .debug_pubnames
                0x000004c6      0x21c ./MicroSemi_Code/drivers/mss_uart/mss_uart.o
 .debug_pubnames
                0x000006e2      0x2eb ./MicroSemi_Code/drivers/mss_i2c/mss_i2c.o
 .debug_pubnames
                0x000009cd       0xb1 ./MicroSemi_Code/drivers/mss_gpio/mss_gpio.o
 .debug_pubnames
                0x00000a7e       0x39 ./MicroSemi_Code/drivers/mss_ethernet_mac/crc32.o
 .debug_pubnames
                0x00000ab7      0x1fd ./MicroSemi_Code/drivers/mss_ethernet_mac/mss_ethernet_mac.o
 .debug_pubnames
                0x00000cb4       0x96 ./MicroSemi_Code/drivers/mss_ethernet_mac/phy.o
 .debug_pubnames
                0x00000d4a      0x1ec ./MicroSemi_Code/drivers/mss_ace/ace_convert.o
 .debug_pubnames
                0x00000f36      0x65f ./MicroSemi_Code/drivers/mss_ace/ace_flags.o
 .debug_pubnames
                0x00001595       0xeb ./MicroSemi_Code/drivers/mss_ace/ace_sse.o
 .debug_pubnames
                0x00001680       0xec ./MicroSemi_Code/drivers/mss_ace/ace_transform.o
 .debug_pubnames
                0x0000176c      0x292 ./MicroSemi_Code/drivers/mss_ace/mss_ace.o
 .debug_pubnames
                0x000019fe       0x2f ./MicroSemi_Code/CMSIS/brownout_isr.o
 .debug_pubnames
                0x00001a2d      0x159 ./MicroSemi_Code/CMSIS/core_cm3.o
 .debug_pubnames
                0x00001b86       0xb4 ./MicroSemi_Code/CMSIS/system_a2fxxxm3.o
 .debug_pubnames
                0x00001c3a       0xeb ./MicroSemi_Code/CMSIS/startup_gcc/newlib_stubs.o
 .debug_pubnames
                0x00001d25       0x3a ./Helpers/uart_helper.o
 .debug_pubnames
                0x00001d5f       0x90 ./FreeTCPIP/psock.o
 .debug_pubnames
                0x00001def       0x68 ./FreeTCPIP/timer.o
 .debug_pubnames
                0x00001e57      0x1e3 ./FreeTCPIP/uip.o
 .debug_pubnames
                0x0000203a       0x57 ./FreeTCPIP/uip_arp.o
 .debug_pubnames
                0x00002091      0x271 ./FreeTCPIP/http_Common/http-strings.o
 .debug_pubnames
                0x00002302       0xf3 ./FreeTCPIP/http_Common/httpd-fs.o
 .debug_pubnames
                0x000023f5       0x33 ./FreeTCPIP/http_Common/httpd.o
 .debug_pubnames
                0x00002428       0x72 ./FreeRTOS_Source/list.o
 .debug_pubnames
                0x0000249a      0x254 ./FreeRTOS_Source/queue.o
 .debug_pubnames
                0x000026ee      0x4d0 ./FreeRTOS_Source/tasks.o
 .debug_pubnames
                0x00002bbe      0x12e ./FreeRTOS_Source/timers.o
 .debug_pubnames
                0x00002cec       0x64 ./FreeRTOS_Source/portable/MemMang/heap_2.o
 .debug_pubnames
                0x00002d50       0xfe ./FreeRTOS_Source/portable/GCC/ARM_CM3/port.o

.debug_info     0x00000000    0x1bd6a
 *(.debug_info .gnu.linkonce.wi.*)
 .debug_info    0x00000000      0x555 ./ParTest.o
 .debug_info    0x00000555     0x1956 ./main-full.o
 .debug_info    0x00001eab      0xf33 ./uIP_Task.o
 .debug_info    0x00002dde       0x29 ./uart_task.o
 .debug_info    0x00002e07      0xdc1 ./WebServer/httpd-cgi.o
 .debug_info    0x00003bc8      0x192 ./MicroSemi_Code/hal/CortexM3/cortex_nvic.o
 .debug_info    0x00003d5a      0x12e ./MicroSemi_Code/hal/CortexM3/GNU/hal_assert.o
 .debug_info    0x00003e88      0x4d9 ./MicroSemi_Code/drivers_config/mss_ace/ace_config.o
 .debug_info    0x00004361     0x15a4 ./MicroSemi_Code/drivers/mss_uart/mss_uart.o
 .debug_info    0x00005905     0x16e7 ./MicroSemi_Code/drivers/mss_i2c/mss_i2c.o
 .debug_info    0x00006fec     0x1114 ./MicroSemi_Code/drivers/mss_gpio/mss_gpio.o
 .debug_info    0x00008100      0x14c ./MicroSemi_Code/drivers/mss_ethernet_mac/crc32.o
 .debug_info    0x0000824c     0x17fb ./MicroSemi_Code/drivers/mss_ethernet_mac/mss_ethernet_mac.o
 .debug_info    0x00009a47      0xc79 ./MicroSemi_Code/drivers/mss_ethernet_mac/phy.o
 .debug_info    0x0000a6c0     0x1aae ./MicroSemi_Code/drivers/mss_ace/ace_convert.o
 .debug_info    0x0000c16e      0xec3 ./MicroSemi_Code/drivers/mss_ace/ace_flags.o
 .debug_info    0x0000d031     0x11fc ./MicroSemi_Code/drivers/mss_ace/ace_sse.o
 .debug_info    0x0000e22d     0x17e4 ./MicroSemi_Code/drivers/mss_ace/ace_transform.o
 .debug_info    0x0000fa11     0x1b07 ./MicroSemi_Code/drivers/mss_ace/mss_ace.o
 .debug_info    0x00011518      0x506 ./MicroSemi_Code/CMSIS/brownout_isr.o
 .debug_info    0x00011a1e      0x54c ./MicroSemi_Code/CMSIS/core_cm3.o
 .debug_info    0x00011f6a      0x53c ./MicroSemi_Code/CMSIS/system_a2fxxxm3.o
 .debug_info    0x000124a6     0x10f0 ./MicroSemi_Code/CMSIS/startup_gcc/newlib_stubs.o
 .debug_info    0x00013596      0xadc ./Helpers/uart_helper.o
 .debug_info    0x00014072      0x7a2 ./FreeTCPIP/psock.o
 .debug_info    0x00014814      0x19e ./FreeTCPIP/timer.o
 .debug_info    0x000149b2      0xede ./FreeTCPIP/uip.o
 .debug_info    0x00015890      0x4bc ./FreeTCPIP/uip_arp.o
 .debug_info    0x00015d4c      0x451 ./FreeTCPIP/http_Common/http-strings.o
 .debug_info    0x0001619d      0x4af ./FreeTCPIP/http_Common/httpd-fs.o
 .debug_info    0x0001664c      0x8da ./FreeTCPIP/http_Common/httpd.o
 .debug_info    0x00016f26      0x2cb ./FreeRTOS_Source/list.o
 .debug_info    0x000171f1     0x15ec ./FreeRTOS_Source/queue.o
 .debug_info    0x000187dd     0x21a8 ./FreeRTOS_Source/tasks.o
 .debug_info    0x0001a985      0xc44 ./FreeRTOS_Source/timers.o
 .debug_info    0x0001b5c9      0x2c4 ./FreeRTOS_Source/portable/MemMang/heap_2.o
 .debug_info    0x0001b88d      0x4dd ./FreeRTOS_Source/portable/GCC/ARM_CM3/port.o

.debug_abbrev   0x00000000     0x390c
 *(.debug_abbrev)
 .debug_abbrev  0x00000000      0x191 ./ParTest.o
 .debug_abbrev  0x00000191      0x27c ./main-full.o
 .debug_abbrev  0x0000040d      0x299 ./uIP_Task.o
 .debug_abbrev  0x000006a6       0x16 ./uart_task.o
 .debug_abbrev  0x000006bc      0x231 ./WebServer/httpd-cgi.o
 .debug_abbrev  0x000008ed       0x9b ./MicroSemi_Code/hal/CortexM3/cortex_nvic.o
 .debug_abbrev  0x00000988       0x90 ./MicroSemi_Code/hal/CortexM3/GNU/hal_assert.o
 .debug_abbrev  0x00000a18       0xbd ./MicroSemi_Code/drivers_config/mss_ace/ace_config.o
 .debug_abbrev  0x00000ad5      0x245 ./MicroSemi_Code/drivers/mss_uart/mss_uart.o
 .debug_abbrev  0x00000d1a      0x22b ./MicroSemi_Code/drivers/mss_i2c/mss_i2c.o
 .debug_abbrev  0x00000f45      0x181 ./MicroSemi_Code/drivers/mss_gpio/mss_gpio.o
 .debug_abbrev  0x000010c6       0xac ./MicroSemi_Code/drivers/mss_ethernet_mac/crc32.o
 .debug_abbrev  0x00001172      0x296 ./MicroSemi_Code/drivers/mss_ethernet_mac/mss_ethernet_mac.o
 .debug_abbrev  0x00001408      0x1bb ./MicroSemi_Code/drivers/mss_ethernet_mac/phy.o
 .debug_abbrev  0x000015c3      0x191 ./MicroSemi_Code/drivers/mss_ace/ace_convert.o
 .debug_abbrev  0x00001754      0x16c ./MicroSemi_Code/drivers/mss_ace/ace_flags.o
 .debug_abbrev  0x000018c0      0x18e ./MicroSemi_Code/drivers/mss_ace/ace_sse.o
 .debug_abbrev  0x00001a4e      0x23a ./MicroSemi_Code/drivers/mss_ace/ace_transform.o
 .debug_abbrev  0x00001c88      0x225 ./MicroSemi_Code/drivers/mss_ace/mss_ace.o
 .debug_abbrev  0x00001ead       0xe2 ./MicroSemi_Code/CMSIS/brownout_isr.o
 .debug_abbrev  0x00001f8f       0xd9 ./MicroSemi_Code/CMSIS/core_cm3.o
 .debug_abbrev  0x00002068      0x111 ./MicroSemi_Code/CMSIS/system_a2fxxxm3.o
 .debug_abbrev  0x00002179      0x1f4 ./MicroSemi_Code/CMSIS/startup_gcc/newlib_stubs.o
 .debug_abbrev  0x0000236d      0x170 ./Helpers/uart_helper.o
 .debug_abbrev  0x000024dd      0x1fc ./FreeTCPIP/psock.o
 .debug_abbrev  0x000026d9       0xd0 ./FreeTCPIP/timer.o
 .debug_abbrev  0x000027a9      0x253 ./FreeTCPIP/uip.o
 .debug_abbrev  0x000029fc      0x18a ./FreeTCPIP/uip_arp.o
 .debug_abbrev  0x00002b86       0x65 ./FreeTCPIP/http_Common/http-strings.o
 .debug_abbrev  0x00002beb      0x146 ./FreeTCPIP/http_Common/httpd-fs.o
 .debug_abbrev  0x00002d31      0x20a ./FreeTCPIP/http_Common/httpd.o
 .debug_abbrev  0x00002f3b       0xcc ./FreeRTOS_Source/list.o
 .debug_abbrev  0x00003007      0x1f2 ./FreeRTOS_Source/queue.o
 .debug_abbrev  0x000031f9      0x225 ./FreeRTOS_Source/tasks.o
 .debug_abbrev  0x0000341e      0x1c7 ./FreeRTOS_Source/timers.o
 .debug_abbrev  0x000035e5      0x141 ./FreeRTOS_Source/portable/MemMang/heap_2.o
 .debug_abbrev  0x00003726      0x1e6 ./FreeRTOS_Source/portable/GCC/ARM_CM3/port.o

.debug_line     0x00000000     0xd7cf
 *(.debug_line)
 .debug_line    0x00000000      0x526 ./ParTest.o
 .debug_line    0x00000526      0xd36 ./main-full.o
 .debug_line    0x0000125c      0xb38 ./uIP_Task.o
 .debug_line    0x00001d94       0x41 ./uart_task.o
 .debug_line    0x00001dd5      0xa1b ./WebServer/httpd-cgi.o
 .debug_line    0x000027f0      0x2eb ./MicroSemi_Code/hal/CortexM3/cortex_nvic.o
 .debug_line    0x00002adb      0x22c ./MicroSemi_Code/hal/CortexM3/GNU/hal_assert.o
 .debug_line    0x00002d07      0x1ea ./MicroSemi_Code/drivers_config/mss_ace/ace_config.o
 .debug_line    0x00002ef1      0x5e3 ./MicroSemi_Code/drivers/mss_uart/mss_uart.o
 .debug_line    0x000034d4      0x760 ./MicroSemi_Code/drivers/mss_i2c/mss_i2c.o
 .debug_line    0x00003c34      0x380 ./MicroSemi_Code/drivers/mss_gpio/mss_gpio.o
 .debug_line    0x00003fb4      0x116 ./MicroSemi_Code/drivers/mss_ethernet_mac/crc32.o
 .debug_line    0x000040ca      0xc89 ./MicroSemi_Code/drivers/mss_ethernet_mac/mss_ethernet_mac.o
 .debug_line    0x00004d53      0x667 ./MicroSemi_Code/drivers/mss_ethernet_mac/phy.o
 .debug_line    0x000053ba      0x53e ./MicroSemi_Code/drivers/mss_ace/ace_convert.o
 .debug_line    0x000058f8      0x850 ./MicroSemi_Code/drivers/mss_ace/ace_flags.o
 .debug_line    0x00006148      0x4f9 ./MicroSemi_Code/drivers/mss_ace/ace_sse.o
 .debug_line    0x00006641      0x445 ./MicroSemi_Code/drivers/mss_ace/ace_transform.o
 .debug_line    0x00006a86      0x676 ./MicroSemi_Code/drivers/mss_ace/mss_ace.o
 .debug_line    0x000070fc      0x124 ./MicroSemi_Code/CMSIS/brownout_isr.o
 .debug_line    0x00007220      0x283 ./MicroSemi_Code/CMSIS/core_cm3.o
 .debug_line    0x000074a3      0x2c6 ./MicroSemi_Code/CMSIS/system_a2fxxxm3.o
 .debug_line    0x00007769      0x586 ./MicroSemi_Code/CMSIS/startup_gcc/newlib_stubs.o
 .debug_line    0x00007cef      0x2b4 ./Helpers/uart_helper.o
 .debug_line    0x00007fa3      0x688 ./FreeTCPIP/psock.o
 .debug_line    0x0000862b      0x614 ./FreeTCPIP/timer.o
 .debug_line    0x00008c3f      0x93c ./FreeTCPIP/uip.o
 .debug_line    0x0000957b      0x5fd ./FreeTCPIP/uip_arp.o
 .debug_line    0x00009b78       0x48 ./FreeTCPIP/http_Common/http-strings.o
 .debug_line    0x00009bc0      0x318 ./FreeTCPIP/http_Common/httpd-fs.o
 .debug_line    0x00009ed8      0x650 ./FreeTCPIP/http_Common/httpd.o
 .debug_line    0x0000a528      0x54e ./FreeRTOS_Source/list.o
 .debug_line    0x0000aa76      0xb5f ./FreeRTOS_Source/queue.o
 .debug_line    0x0000b5d5      0xfb5 ./FreeRTOS_Source/tasks.o
 .debug_line    0x0000c58a      0x7ea ./FreeRTOS_Source/timers.o
 .debug_line    0x0000cd74      0x578 ./FreeRTOS_Source/portable/MemMang/heap_2.o
 .debug_line    0x0000d2ec      0x4e3 ./FreeRTOS_Source/portable/GCC/ARM_CM3/port.o

.debug_frame    0x00000000     0x4c1c
 *(.debug_frame)
 .debug_frame   0x00000000       0xcc ./ParTest.o
 .debug_frame   0x000000cc      0x254 ./main-full.o
 .debug_frame   0x00000320      0x160 ./uIP_Task.o
 .debug_frame   0x00000480      0x218 ./WebServer/httpd-cgi.o
 .debug_frame   0x00000698       0xb4 ./MicroSemi_Code/hal/CortexM3/cortex_nvic.o
 .debug_frame   0x0000074c       0x2c ./MicroSemi_Code/hal/CortexM3/GNU/hal_assert.o
 .debug_frame   0x00000778      0x2e4 ./MicroSemi_Code/drivers/mss_uart/mss_uart.o
 .debug_frame   0x00000a5c      0x40c ./MicroSemi_Code/drivers/mss_i2c/mss_i2c.o
 .debug_frame   0x00000e68      0x118 ./MicroSemi_Code/drivers/mss_gpio/mss_gpio.o
 .debug_frame   0x00000f80       0x4c ./MicroSemi_Code/drivers/mss_ethernet_mac/crc32.o
 .debug_frame   0x00000fcc      0x3bc ./MicroSemi_Code/drivers/mss_ethernet_mac/mss_ethernet_mac.o
 .debug_frame   0x00001388      0x168 ./MicroSemi_Code/drivers/mss_ethernet_mac/phy.o
 .debug_frame   0x000014f0      0x24c ./MicroSemi_Code/drivers/mss_ace/ace_convert.o
 .debug_frame   0x0000173c      0x764 ./MicroSemi_Code/drivers/mss_ace/ace_flags.o
 .debug_frame   0x00001ea0      0x12c ./MicroSemi_Code/drivers/mss_ace/ace_sse.o
 .debug_frame   0x00001fcc      0x104 ./MicroSemi_Code/drivers/mss_ace/ace_transform.o
 .debug_frame   0x000020d0      0x2cc ./MicroSemi_Code/drivers/mss_ace/mss_ace.o
 .debug_frame   0x0000239c       0x34 ./MicroSemi_Code/CMSIS/brownout_isr.o
 .debug_frame   0x000023d0      0x248 ./MicroSemi_Code/CMSIS/core_cm3.o
 .debug_frame   0x00002618       0x64 ./MicroSemi_Code/CMSIS/system_a2fxxxm3.o
 .debug_frame   0x0000267c      0x220 ./MicroSemi_Code/CMSIS/startup_gcc/newlib_stubs.o
 .debug_frame   0x0000289c       0x30 ./Helpers/uart_helper.o
 .debug_frame   0x000028cc      0x180 ./FreeTCPIP/psock.o
 .debug_frame   0x00002a4c       0xac ./FreeTCPIP/timer.o
 .debug_frame   0x00002af8      0x208 ./FreeTCPIP/uip.o
 .debug_frame   0x00002d00       0xa8 ./FreeTCPIP/uip_arp.o
 .debug_frame   0x00002da8       0x88 ./FreeTCPIP/http_Common/httpd-fs.o
 .debug_frame   0x00002e30      0x16c ./FreeTCPIP/http_Common/httpd.o
 .debug_frame   0x00002f9c       0x9c ./FreeRTOS_Source/list.o
 .debug_frame   0x00003038      0x3d4 ./FreeRTOS_Source/queue.o
 .debug_frame   0x0000340c      0x764 ./FreeRTOS_Source/tasks.o
 .debug_frame   0x00003b70      0x2b0 ./FreeRTOS_Source/timers.o
 .debug_frame   0x00003e20       0x9c ./FreeRTOS_Source/portable/MemMang/heap_2.o
 .debug_frame   0x00003ebc      0x140 ./FreeRTOS_Source/portable/GCC/ARM_CM3/port.o
 .debug_frame   0x00003ffc       0x2c c:/program files (x86)/microsemi/softconsole v3.4/sourcery-g++/bin/../lib/gcc/arm-none-eabi/4.4.1/../../../../arm-none-eabi/lib/thumb2\libc.a(lib_a-clock.o)
 .debug_frame   0x00004028       0xc8 c:/program files (x86)/microsemi/softconsole v3.4/sourcery-g++/bin/../lib/gcc/arm-none-eabi/4.4.1/../../../../arm-none-eabi/lib/thumb2\libc.a(lib_a-efgcvt.o)
 .debug_frame   0x000040f0       0x20 c:/program files (x86)/microsemi/softconsole v3.4/sourcery-g++/bin/../lib/gcc/arm-none-eabi/4.4.1/../../../../arm-none-eabi/lib/thumb2\libc.a(lib_a-errno.o)
 .debug_frame   0x00004110       0x2c c:/program files (x86)/microsemi/softconsole v3.4/sourcery-g++/bin/../lib/gcc/arm-none-eabi/4.4.1/../../../../arm-none-eabi/lib/thumb2\libc.a(lib_a-init.o)
 .debug_frame   0x0000413c       0x34 c:/program files (x86)/microsemi/softconsole v3.4/sourcery-g++/bin/../lib/gcc/arm-none-eabi/4.4.1/../../../../arm-none-eabi/lib/thumb2\libc.a(lib_a-memcpy.o)
 .debug_frame   0x00004170       0x28 c:/program files (x86)/microsemi/softconsole v3.4/sourcery-g++/bin/../lib/gcc/arm-none-eabi/4.4.1/../../../../arm-none-eabi/lib/thumb2\libc.a(lib_a-memset.o)
 .debug_frame   0x00004198       0x64 c:/program files (x86)/microsemi/softconsole v3.4/sourcery-g++/bin/../lib/gcc/arm-none-eabi/4.4.1/../../../../arm-none-eabi/lib/thumb2\libc.a(lib_a-snprintf.o)
 .debug_frame   0x000041fc       0x5c c:/program files (x86)/microsemi/softconsole v3.4/sourcery-g++/bin/../lib/gcc/arm-none-eabi/4.4.1/../../../../arm-none-eabi/lib/thumb2\libc.a(lib_a-sprintf.o)
 .debug_frame   0x00004258       0x28 c:/program files (x86)/microsemi/softconsole v3.4/sourcery-g++/bin/../lib/gcc/arm-none-eabi/4.4.1/../../../../arm-none-eabi/lib/thumb2\libc.a(lib_a-strcat.o)
 .debug_frame   0x00004280       0x28 c:/program files (x86)/microsemi/softconsole v3.4/sourcery-g++/bin/../lib/gcc/arm-none-eabi/4.4.1/../../../../arm-none-eabi/lib/thumb2\libc.a(lib_a-strchr.o)
 .debug_frame   0x000042a8       0x20 c:/program files (x86)/microsemi/softconsole v3.4/sourcery-g++/bin/../lib/gcc/arm-none-eabi/4.4.1/../../../../arm-none-eabi/lib/thumb2\libc.a(lib_a-strcpy.o)
 .debug_frame   0x000042c8       0x20 c:/program files (x86)/microsemi/softconsole v3.4/sourcery-g++/bin/../lib/gcc/arm-none-eabi/4.4.1/../../../../arm-none-eabi/lib/thumb2\libc.a(lib_a-strlen.o)
 .debug_frame   0x000042e8       0x28 c:/program files (x86)/microsemi/softconsole v3.4/sourcery-g++/bin/../lib/gcc/arm-none-eabi/4.4.1/../../../../arm-none-eabi/lib/thumb2\libc.a(lib_a-strncmp.o)
 .debug_frame   0x00004310       0x28 c:/program files (x86)/microsemi/softconsole v3.4/sourcery-g++/bin/../lib/gcc/arm-none-eabi/4.4.1/../../../../arm-none-eabi/lib/thumb2\libc.a(lib_a-strncpy.o)
 .debug_frame   0x00004338       0x2c c:/program files (x86)/microsemi/softconsole v3.4/sourcery-g++/bin/../lib/gcc/arm-none-eabi/4.4.1/../../../../arm-none-eabi/lib/thumb2\libc.a(lib_a-strrchr.o)
 .debug_frame   0x00004364       0x90 c:/program files (x86)/microsemi/softconsole v3.4/sourcery-g++/bin/../lib/gcc/arm-none-eabi/4.4.1/../../../../arm-none-eabi/lib/thumb2\libc.a(lib_a-strstr.o)
 .debug_frame   0x000043f4       0x68 c:/program files (x86)/microsemi/softconsole v3.4/sourcery-g++/bin/../lib/gcc/arm-none-eabi/4.4.1/../../../../arm-none-eabi/lib/thumb2\libc.a(lib_a-svfprintf.o)
 .debug_frame   0x0000445c       0x20 c:/program files (x86)/microsemi/softconsole v3.4/sourcery-g++/bin/../lib/gcc/arm-none-eabi/4.4.1/../../../../arm-none-eabi/lib/thumb2\libc.a(lib_a-timesr.o)
 .debug_frame   0x0000447c       0x64 c:/program files (x86)/microsemi/softconsole v3.4/sourcery-g++/bin/../lib/gcc/arm-none-eabi/4.4.1/../../../../arm-none-eabi/lib/thumb2\libc.a(lib_a-dtoa.o)
 .debug_frame   0x000044e0       0xd8 c:/program files (x86)/microsemi/softconsole v3.4/sourcery-g++/bin/../lib/gcc/arm-none-eabi/4.4.1/../../../../arm-none-eabi/lib/thumb2\libc.a(lib_a-ecvtbuf.o)
 .debug_frame   0x000045b8       0x50 c:/program files (x86)/microsemi/softconsole v3.4/sourcery-g++/bin/../lib/gcc/arm-none-eabi/4.4.1/../../../../arm-none-eabi/lib/thumb2\libc.a(lib_a-freer.o)
 .debug_frame   0x00004608       0x6c c:/program files (x86)/microsemi/softconsole v3.4/sourcery-g++/bin/../lib/gcc/arm-none-eabi/4.4.1/../../../../arm-none-eabi/lib/thumb2\libc.a(lib_a-locale.o)
 .debug_frame   0x00004674       0x30 c:/program files (x86)/microsemi/softconsole v3.4/sourcery-g++/bin/../lib/gcc/arm-none-eabi/4.4.1/../../../../arm-none-eabi/lib/thumb2\libc.a(lib_a-malloc.o)
 .debug_frame   0x000046a4       0x3c c:/program files (x86)/microsemi/softconsole v3.4/sourcery-g++/bin/../lib/gcc/arm-none-eabi/4.4.1/../../../../arm-none-eabi/lib/thumb2\libc.a(lib_a-mallocr.o)
 .debug_frame   0x000046e0       0x28 c:/program files (x86)/microsemi/softconsole v3.4/sourcery-g++/bin/../lib/gcc/arm-none-eabi/4.4.1/../../../../arm-none-eabi/lib/thumb2\libc.a(lib_a-memchr.o)
 .debug_frame   0x00004708       0x28 c:/program files (x86)/microsemi/softconsole v3.4/sourcery-g++/bin/../lib/gcc/arm-none-eabi/4.4.1/../../../../arm-none-eabi/lib/thumb2\libc.a(lib_a-memcmp.o)
 .debug_frame   0x00004730       0x2c c:/program files (x86)/microsemi/softconsole v3.4/sourcery-g++/bin/../lib/gcc/arm-none-eabi/4.4.1/../../../../arm-none-eabi/lib/thumb2\libc.a(lib_a-memmove.o)
 .debug_frame   0x0000475c       0x30 c:/program files (x86)/microsemi/softconsole v3.4/sourcery-g++/bin/../lib/gcc/arm-none-eabi/4.4.1/../../../../arm-none-eabi/lib/thumb2\libc.a(lib_a-mlock.o)
 .debug_frame   0x0000478c      0x240 c:/program files (x86)/microsemi/softconsole v3.4/sourcery-g++/bin/../lib/gcc/arm-none-eabi/4.4.1/../../../../arm-none-eabi/lib/thumb2\libc.a(lib_a-mprec.o)
 .debug_frame   0x000049cc       0x3c c:/program files (x86)/microsemi/softconsole v3.4/sourcery-g++/bin/../lib/gcc/arm-none-eabi/4.4.1/../../../../arm-none-eabi/lib/thumb2\libc.a(lib_a-reallocr.o)
 .debug_frame   0x00004a08       0x20 c:/program files (x86)/microsemi/softconsole v3.4/sourcery-g++/bin/../lib/gcc/arm-none-eabi/4.4.1/../../../../arm-none-eabi/lib/thumb2\libc.a(lib_a-s_isinfd.o)
 .debug_frame   0x00004a28       0x20 c:/program files (x86)/microsemi/softconsole v3.4/sourcery-g++/bin/../lib/gcc/arm-none-eabi/4.4.1/../../../../arm-none-eabi/lib/thumb2\libc.a(lib_a-s_isnand.o)
 .debug_frame   0x00004a48       0x2c c:/program files (x86)/microsemi/softconsole v3.4/sourcery-g++/bin/../lib/gcc/arm-none-eabi/4.4.1/../../../../arm-none-eabi/lib/thumb2\libc.a(lib_a-sbrkr.o)
 .debug_frame   0x00004a74       0x30 c:/program files (x86)/microsemi/softconsole v3.4/sourcery-g++/bin/../lib/gcc/arm-none-eabi/4.4.1/../../../../arm-none-eabi/lib/thumb2\libc.a(lib_a-strcmp.o)
 .debug_frame   0x00004aa4       0x2c c:/program files (x86)/microsemi/softconsole v3.4/sourcery-g++/bin/../lib/gcc/arm-none-eabi/4.4.1/../../../../arm-none-eabi/lib/thumb2\libc.a(lib_a-callocr.o)
 .debug_frame   0x00004ad0       0x64 c:/program files (x86)/microsemi/softconsole v3.4/sourcery-g++/bin/../lib/gcc/arm-none-eabi/4.4.1/../../../../arm-none-eabi/lib/thumb2\libc.a(lib_a-reent.o)
 .debug_frame   0x00004b34       0x20 c:/program files (x86)/microsemi/softconsole v3.4/sourcery-g++/bin/../lib/gcc/arm-none-eabi/4.4.1/thumb2\libgcc.a(_udivsi3.o)
 .debug_frame   0x00004b54       0x50 c:/program files (x86)/microsemi/softconsole v3.4/sourcery-g++/bin/../lib/gcc/arm-none-eabi/4.4.1/thumb2\libgcc.a(bpabi.o)
 .debug_frame   0x00004ba4       0x3c c:/program files (x86)/microsemi/softconsole v3.4/sourcery-g++/bin/../lib/gcc/arm-none-eabi/4.4.1/thumb2\libgcc.a(_divdi3.o)
 .debug_frame   0x00004be0       0x3c c:/program files (x86)/microsemi/softconsole v3.4/sourcery-g++/bin/../lib/gcc/arm-none-eabi/4.4.1/thumb2\libgcc.a(_udivdi3.o)

.debug_str      0x00000000     0x8606
 *(.debug_str)
 .debug_str     0x00000000      0x4f3 ./ParTest.o
                                0x53a (size before relaxing)
 .debug_str     0x000004f3     0x143e ./main-full.o
                               0x17eb (size before relaxing)
 .debug_str     0x00001931      0x32c ./uIP_Task.o
                               0x1011 (size before relaxing)
 .debug_str     0x00001c5d        0xf ./uart_task.o
                                 0x85 (size before relaxing)
 .debug_str     0x00001c6c      0x2d2 ./WebServer/httpd-cgi.o
                                0x581 (size before relaxing)
 .debug_str     0x00001f3e       0xd0 ./MicroSemi_Code/hal/CortexM3/cortex_nvic.o
                                0x1e3 (size before relaxing)
 .debug_str     0x0000200e       0x72 ./MicroSemi_Code/hal/CortexM3/GNU/hal_assert.o
                                0x188 (size before relaxing)
 .debug_str     0x00002080      0x36a ./MicroSemi_Code/drivers_config/mss_ace/ace_config.o
                                0x486 (size before relaxing)
 .debug_str     0x000023ea      0x3bd ./MicroSemi_Code/drivers/mss_uart/mss_uart.o
                               0x14ca (size before relaxing)
 .debug_str     0x000027a7      0x811 ./MicroSemi_Code/drivers/mss_i2c/mss_i2c.o
                               0x176a (size before relaxing)
 .debug_str     0x00002fb8      0x15e ./MicroSemi_Code/drivers/mss_gpio/mss_gpio.o
                               0x12a2 (size before relaxing)
 .debug_str     0x00003116       0x6a ./MicroSemi_Code/drivers/mss_ethernet_mac/crc32.o
                                0x180 (size before relaxing)
 .debug_str     0x00003180      0xc25 ./MicroSemi_Code/drivers/mss_ethernet_mac/mss_ethernet_mac.o
                                0xe9c (size before relaxing)
 .debug_str     0x00003da5      0x125 ./MicroSemi_Code/drivers/mss_ethernet_mac/phy.o
                                0x8c8 (size before relaxing)
 .debug_str     0x00003eca      0xbcd ./MicroSemi_Code/drivers/mss_ace/ace_convert.o
                                0xfeb (size before relaxing)
 .debug_str     0x00004a97      0x699 ./MicroSemi_Code/drivers/mss_ace/ace_flags.o
                               0x1339 (size before relaxing)
 .debug_str     0x00005130      0x2d4 ./MicroSemi_Code/drivers/mss_ace/ace_sse.o
                                0xda6 (size before relaxing)
 .debug_str     0x00005404      0x405 ./MicroSemi_Code/drivers/mss_ace/ace_transform.o
                               0x111c (size before relaxing)
 .debug_str     0x00005809      0x4df ./MicroSemi_Code/drivers/mss_ace/mss_ace.o
                               0x1319 (size before relaxing)
 .debug_str     0x00005ce8       0x5c ./MicroSemi_Code/CMSIS/brownout_isr.o
                                0x3d2 (size before relaxing)
 .debug_str     0x00005d44      0x14a ./MicroSemi_Code/CMSIS/core_cm3.o
                                0x280 (size before relaxing)
 .debug_str     0x00005e8e      0x106 ./MicroSemi_Code/CMSIS/system_a2fxxxm3.o
                                0x46d (size before relaxing)
 .debug_str     0x00005f94      0x1d1 ./MicroSemi_Code/CMSIS/startup_gcc/newlib_stubs.o
                               0x10b9 (size before relaxing)
 .debug_str     0x00006165       0x37 ./Helpers/uart_helper.o
                                0xeaf (size before relaxing)
 .debug_str     0x0000619c       0xdc ./FreeTCPIP/psock.o
                                0x35d (size before relaxing)
 .debug_str     0x00006278       0x60 ./FreeTCPIP/timer.o
                                0x18c (size before relaxing)
 .debug_str     0x000062d8      0x2bf ./FreeTCPIP/uip.o
                                0x656 (size before relaxing)
 .debug_str     0x00006597       0xf6 ./FreeTCPIP/uip_arp.o
                                0x2fc (size before relaxing)
 .debug_str     0x0000668d      0x1ff ./FreeTCPIP/http_Common/http-strings.o
                                0x27a (size before relaxing)
 .debug_str     0x0000688c      0x1b3 ./FreeTCPIP/http_Common/httpd-fs.o
                                0x29c (size before relaxing)
 .debug_str     0x00006a3f       0xcf ./FreeTCPIP/http_Common/httpd.o
                                0x470 (size before relaxing)
 .debug_str     0x00006b0e      0x143 ./FreeRTOS_Source/list.o
                                0x261 (size before relaxing)
 .debug_str     0x00006c51      0x554 ./FreeRTOS_Source/queue.o
                                0x80d (size before relaxing)
 .debug_str     0x000071a5      0xce1 ./FreeRTOS_Source/tasks.o
                               0x1048 (size before relaxing)
 .debug_str     0x00007e86      0x440 ./FreeRTOS_Source/timers.o
                                0x6ea (size before relaxing)
 .debug_str     0x000082c6      0x158 ./FreeRTOS_Source/portable/MemMang/heap_2.o
                                0x28e (size before relaxing)
 .debug_str     0x0000841e      0x1e8 ./FreeRTOS_Source/portable/GCC/ARM_CM3/port.o
                                0x392 (size before relaxing)

.debug_loc      0x00000000     0x6c5a
 *(.debug_loc)
 .debug_loc     0x00000000      0x14a ./ParTest.o
 .debug_loc     0x0000014a      0x410 ./main-full.o
 .debug_loc     0x0000055a      0x251 ./uIP_Task.o
 .debug_loc     0x000007ab      0x371 ./WebServer/httpd-cgi.o
 .debug_loc     0x00000b1c      0x13e ./MicroSemi_Code/hal/CortexM3/cortex_nvic.o
 .debug_loc     0x00000c5a       0x37 ./MicroSemi_Code/hal/CortexM3/GNU/hal_assert.o
 .debug_loc     0x00000c91      0x510 ./MicroSemi_Code/drivers/mss_uart/mss_uart.o
 .debug_loc     0x000011a1      0x736 ./MicroSemi_Code/drivers/mss_i2c/mss_i2c.o
 .debug_loc     0x000018d7      0x1ef ./MicroSemi_Code/drivers/mss_gpio/mss_gpio.o
 .debug_loc     0x00001ac6       0x6e ./MicroSemi_Code/drivers/mss_ethernet_mac/crc32.o
 .debug_loc     0x00001b34      0x693 ./MicroSemi_Code/drivers/mss_ethernet_mac/mss_ethernet_mac.o
 .debug_loc     0x000021c7      0x251 ./MicroSemi_Code/drivers/mss_ethernet_mac/phy.o
 .debug_loc     0x00002418      0x415 ./MicroSemi_Code/drivers/mss_ace/ace_convert.o
 .debug_loc     0x0000282d      0xaea ./MicroSemi_Code/drivers/mss_ace/ace_flags.o
 .debug_loc     0x00003317      0x226 ./MicroSemi_Code/drivers/mss_ace/ace_sse.o
 .debug_loc     0x0000353d      0x1bc ./MicroSemi_Code/drivers/mss_ace/ace_transform.o
 .debug_loc     0x000036f9      0x53b ./MicroSemi_Code/drivers/mss_ace/mss_ace.o
 .debug_loc     0x00003c34       0x37 ./MicroSemi_Code/CMSIS/brownout_isr.o
 .debug_loc     0x00003c6b      0x3de ./MicroSemi_Code/CMSIS/core_cm3.o
 .debug_loc     0x00004049       0x99 ./MicroSemi_Code/CMSIS/system_a2fxxxm3.o
 .debug_loc     0x000040e2      0x3c6 ./MicroSemi_Code/CMSIS/startup_gcc/newlib_stubs.o
 .debug_loc     0x000044a8       0x37 ./Helpers/uart_helper.o
 .debug_loc     0x000044df      0x27c ./FreeTCPIP/psock.o
 .debug_loc     0x0000475b      0x113 ./FreeTCPIP/timer.o
 .debug_loc     0x0000486e      0x383 ./FreeTCPIP/uip.o
 .debug_loc     0x00004bf1       0xfb ./FreeTCPIP/uip_arp.o
 .debug_loc     0x00004cec       0xdc ./FreeTCPIP/http_Common/httpd-fs.o
 .debug_loc     0x00004dc8      0x251 ./FreeTCPIP/http_Common/httpd.o
 .debug_loc     0x00005019      0x113 ./FreeRTOS_Source/list.o
 .debug_loc     0x0000512c      0x6b5 ./FreeRTOS_Source/queue.o
 .debug_loc     0x000057e1      0xced ./FreeRTOS_Source/tasks.o
 .debug_loc     0x000064ce      0x4ae ./FreeRTOS_Source/timers.o
 .debug_loc     0x0000697c       0xfb ./FreeRTOS_Source/portable/MemMang/heap_2.o
 .debug_loc     0x00006a77      0x1e3 ./FreeRTOS_Source/portable/GCC/ARM_CM3/port.o

.debug_macinfo  0x00000000    0xef06f
 *(.debug_macinfo)
 .debug_macinfo
                0x00000000     0x9cc1 ./ParTest.o
 .debug_macinfo
                0x00009cc1     0xe4b3 ./main-full.o
 .debug_macinfo
                0x00018174    0x10bb2 ./uIP_Task.o
 .debug_macinfo
                0x00028d26      0xcaf ./uart_task.o
 .debug_macinfo
                0x000299d5     0xac6e ./WebServer/httpd-cgi.o
 .debug_macinfo
                0x00034643     0x1959 ./MicroSemi_Code/hal/CortexM3/cortex_nvic.o
 .debug_macinfo
                0x00035f9c     0x1cfc ./MicroSemi_Code/hal/CortexM3/GNU/hal_assert.o
 .debug_macinfo
                0x00037c98     0x18fe ./MicroSemi_Code/drivers_config/mss_ace/ace_config.o
 .debug_macinfo
                0x00039596     0x63e4 ./MicroSemi_Code/drivers/mss_uart/mss_uart.o
 .debug_macinfo
                0x0003f97a     0x7519 ./MicroSemi_Code/drivers/mss_i2c/mss_i2c.o
 .debug_macinfo
                0x00046e93     0x5cfb ./MicroSemi_Code/drivers/mss_gpio/mss_gpio.o
 .debug_macinfo
                0x0004cb8e     0x152f ./MicroSemi_Code/drivers/mss_ethernet_mac/crc32.o
 .debug_macinfo
                0x0004e0bd     0xc5c1 ./MicroSemi_Code/drivers/mss_ethernet_mac/mss_ethernet_mac.o
 .debug_macinfo
                0x0005a67e     0xbd03 ./MicroSemi_Code/drivers/mss_ethernet_mac/phy.o
 .debug_macinfo
                0x00066381     0x5b96 ./MicroSemi_Code/drivers/mss_ace/ace_convert.o
 .debug_macinfo
                0x0006bf17     0x786f ./MicroSemi_Code/drivers/mss_ace/ace_flags.o
 .debug_macinfo
                0x00073786     0x7513 ./MicroSemi_Code/drivers/mss_ace/ace_sse.o
 .debug_macinfo
                0x0007ac99     0x5d43 ./MicroSemi_Code/drivers/mss_ace/ace_transform.o
 .debug_macinfo
                0x000809dc     0x77f8 ./MicroSemi_Code/drivers/mss_ace/mss_ace.o
 .debug_macinfo
                0x000881d4     0x5409 ./MicroSemi_Code/CMSIS/brownout_isr.o
 .debug_macinfo
                0x0008d5dd     0x152c ./MicroSemi_Code/CMSIS/core_cm3.o
 .debug_macinfo
                0x0008eb09     0x5a99 ./MicroSemi_Code/CMSIS/system_a2fxxxm3.o
 .debug_macinfo
                0x000945a2     0x9965 ./MicroSemi_Code/CMSIS/startup_gcc/newlib_stubs.o
 .debug_macinfo
                0x0009df07     0x5d6b ./Helpers/uart_helper.o
 .debug_macinfo
                0x000a3c72     0x5d4d ./FreeTCPIP/psock.o
 .debug_macinfo
                0x000a99bf     0x5b53 ./FreeTCPIP/timer.o
 .debug_macinfo
                0x000af512     0x52b0 ./FreeTCPIP/uip.o
 .debug_macinfo
                0x000b47c2     0x5012 ./FreeTCPIP/uip_arp.o
 .debug_macinfo
                0x000b97d4      0xc9b ./FreeTCPIP/http_Common/http-strings.o
 .debug_macinfo
                0x000ba46f     0x1c25 ./FreeTCPIP/http_Common/httpd-fs.o
 .debug_macinfo
                0x000bc094     0x4f45 ./FreeTCPIP/http_Common/httpd.o
 .debug_macinfo
                0x000c0fd9     0x6fcb ./FreeRTOS_Source/list.o
 .debug_macinfo
                0x000c7fa4     0x8021 ./FreeRTOS_Source/queue.o
 .debug_macinfo
                0x000cffc5     0x9455 ./FreeRTOS_Source/tasks.o
 .debug_macinfo
                0x000d941a     0x8589 ./FreeRTOS_Source/timers.o
 .debug_macinfo
                0x000e19a3     0x7805 ./FreeRTOS_Source/portable/MemMang/heap_2.o
 .debug_macinfo
                0x000e91a8     0x5ec7 ./FreeRTOS_Source/portable/GCC/ARM_CM3/port.o

.debug_weaknames
 *(.debug_weaknames)

.debug_funcnames
 *(.debug_funcnames)

.debug_typenames
 *(.debug_typenames)

.debug_varnames
 *(.debug_varnames)

.note.gnu.arm.ident
 *(.note.gnu.arm.ident)

.ARM.attributes
                0x00000000       0x25
 *(.ARM.attributes)
 .ARM.attributes
                0x00000000       0x19 c:/program files (x86)/microsemi/softconsole v3.4/sourcery-g++/bin/../lib/gcc/arm-none-eabi/4.4.1/thumb2/crti.o
 .ARM.attributes
                0x00000019       0x29 c:/program files (x86)/microsemi/softconsole v3.4/sourcery-g++/bin/../lib/gcc/arm-none-eabi/4.4.1/thumb2/crtbegin.o
 .ARM.attributes
                0x00000042       0x31 ./ParTest.o
 .ARM.attributes
                0x00000073       0x31 ./main-full.o
 .ARM.attributes
                0x000000a4       0x31 ./uIP_Task.o
 .ARM.attributes
                0x000000d5       0x31 ./uart_task.o
 .ARM.attributes
                0x00000106       0x31 ./WebServer/httpd-cgi.o
 .ARM.attributes
                0x00000137       0x31 ./MicroSemi_Code/hal/CortexM3/cortex_nvic.o
 .ARM.attributes
                0x00000168       0x21 ./MicroSemi_Code/hal/CortexM3/GNU/hal.o
 .ARM.attributes
                0x00000189       0x31 ./MicroSemi_Code/hal/CortexM3/GNU/hal_assert.o
 .ARM.attributes
                0x000001ba       0x21 ./MicroSemi_Code/hal/CortexM3/GNU/hw_reg_access.o
 .ARM.attributes
                0x000001db       0x31 ./MicroSemi_Code/drivers_config/mss_ace/ace_config.o
 .ARM.attributes
                0x0000020c       0x31 ./MicroSemi_Code/drivers/mss_uart/mss_uart.o
 .ARM.attributes
                0x0000023d       0x31 ./MicroSemi_Code/drivers/mss_i2c/mss_i2c.o
 .ARM.attributes
                0x0000026e       0x31 ./MicroSemi_Code/drivers/mss_gpio/mss_gpio.o
 .ARM.attributes
                0x0000029f       0x31 ./MicroSemi_Code/drivers/mss_ethernet_mac/crc32.o
 .ARM.attributes
                0x000002d0       0x31 ./MicroSemi_Code/drivers/mss_ethernet_mac/mss_ethernet_mac.o
 .ARM.attributes
                0x00000301       0x31 ./MicroSemi_Code/drivers/mss_ethernet_mac/phy.o
 .ARM.attributes
                0x00000332       0x31 ./MicroSemi_Code/drivers/mss_ace/ace_convert.o
 .ARM.attributes
                0x00000363       0x31 ./MicroSemi_Code/drivers/mss_ace/ace_flags.o
 .ARM.attributes
                0x00000394       0x31 ./MicroSemi_Code/drivers/mss_ace/ace_sse.o
 .ARM.attributes
                0x000003c5       0x31 ./MicroSemi_Code/drivers/mss_ace/ace_transform.o
 .ARM.attributes
                0x000003f6       0x31 ./MicroSemi_Code/drivers/mss_ace/mss_ace.o
 .ARM.attributes
                0x00000427       0x31 ./MicroSemi_Code/CMSIS/brownout_isr.o
 .ARM.attributes
                0x00000458       0x31 ./MicroSemi_Code/CMSIS/core_cm3.o
 .ARM.attributes
                0x00000489       0x31 ./MicroSemi_Code/CMSIS/system_a2fxxxm3.o
 .ARM.attributes
                0x000004ba       0x31 ./MicroSemi_Code/CMSIS/startup_gcc/newlib_stubs.o
 .ARM.attributes
                0x000004eb       0x21 ./MicroSemi_Code/CMSIS/startup_gcc/startup_a2fxxxm3.o
 .ARM.attributes
                0x0000050c       0x31 ./Helpers/uart_helper.o
 .ARM.attributes
                0x0000053d       0x31 ./FreeTCPIP/psock.o
 .ARM.attributes
                0x0000056e       0x31 ./FreeTCPIP/timer.o
 .ARM.attributes
                0x0000059f       0x31 ./FreeTCPIP/uip.o
 .ARM.attributes
                0x000005d0       0x31 ./FreeTCPIP/uip_arp.o
 .ARM.attributes
                0x00000601       0x31 ./FreeTCPIP/http_Common/http-strings.o
 .ARM.attributes
                0x00000632       0x31 ./FreeTCPIP/http_Common/httpd-fs.o
 .ARM.attributes
                0x00000663       0x31 ./FreeTCPIP/http_Common/httpd.o
 .ARM.attributes
                0x00000694       0x31 ./FreeRTOS_Source/list.o
 .ARM.attributes
                0x000006c5       0x31 ./FreeRTOS_Source/queue.o
 .ARM.attributes
                0x000006f6       0x31 ./FreeRTOS_Source/tasks.o
 .ARM.attributes
                0x00000727       0x31 ./FreeRTOS_Source/timers.o
 .ARM.attributes
                0x00000758       0x31 ./FreeRTOS_Source/portable/MemMang/heap_2.o
 .ARM.attributes
                0x00000789       0x31 ./FreeRTOS_Source/portable/GCC/ARM_CM3/port.o
 .ARM.attributes
                0x000007ba       0x1b c:/program files (x86)/microsemi/softconsole v3.4/sourcery-g++/bin/../lib/gcc/arm-none-eabi/4.4.1/thumb2\libgcc.a(_arm_addsubdf3.o)
 .ARM.attributes
                0x000007d5       0x1b c:/program files (x86)/microsemi/softconsole v3.4/sourcery-g++/bin/../lib/gcc/arm-none-eabi/4.4.1/thumb2\libgcc.a(_arm_muldivdf3.o)
 .ARM.attributes
                0x000007f0       0x29 c:/program files (x86)/microsemi/softconsole v3.4/sourcery-g++/bin/../lib/gcc/arm-none-eabi/4.4.1/../../../../arm-none-eabi/lib/thumb2\libc.a(lib_a-clock.o)
 .ARM.attributes
                0x00000819       0x29 c:/program files (x86)/microsemi/softconsole v3.4/sourcery-g++/bin/../lib/gcc/arm-none-eabi/4.4.1/../../../../arm-none-eabi/lib/thumb2\libc.a(lib_a-efgcvt.o)
 .ARM.attributes
                0x00000842       0x29 c:/program files (x86)/microsemi/softconsole v3.4/sourcery-g++/bin/../lib/gcc/arm-none-eabi/4.4.1/../../../../arm-none-eabi/lib/thumb2\libc.a(lib_a-errno.o)
 .ARM.attributes
                0x0000086b       0x29 c:/program files (x86)/microsemi/softconsole v3.4/sourcery-g++/bin/../lib/gcc/arm-none-eabi/4.4.1/../../../../arm-none-eabi/lib/thumb2\libc.a(lib_a-impure.o)
 .ARM.attributes
                0x00000894       0x29 c:/program files (x86)/microsemi/softconsole v3.4/sourcery-g++/bin/../lib/gcc/arm-none-eabi/4.4.1/../../../../arm-none-eabi/lib/thumb2\libc.a(lib_a-init.o)
 .ARM.attributes
                0x000008bd       0x29 c:/program files (x86)/microsemi/softconsole v3.4/sourcery-g++/bin/../lib/gcc/arm-none-eabi/4.4.1/../../../../arm-none-eabi/lib/thumb2\libc.a(lib_a-memcpy.o)
 .ARM.attributes
                0x000008e6       0x29 c:/program files (x86)/microsemi/softconsole v3.4/sourcery-g++/bin/../lib/gcc/arm-none-eabi/4.4.1/../../../../arm-none-eabi/lib/thumb2\libc.a(lib_a-memset.o)
 .ARM.attributes
                0x0000090f       0x29 c:/program files (x86)/microsemi/softconsole v3.4/sourcery-g++/bin/../lib/gcc/arm-none-eabi/4.4.1/../../../../arm-none-eabi/lib/thumb2\libc.a(lib_a-snprintf.o)
 .ARM.attributes
                0x00000938       0x29 c:/program files (x86)/microsemi/softconsole v3.4/sourcery-g++/bin/../lib/gcc/arm-none-eabi/4.4.1/../../../../arm-none-eabi/lib/thumb2\libc.a(lib_a-sprintf.o)
 .ARM.attributes
                0x00000961       0x29 c:/program files (x86)/microsemi/softconsole v3.4/sourcery-g++/bin/../lib/gcc/arm-none-eabi/4.4.1/../../../../arm-none-eabi/lib/thumb2\libc.a(lib_a-strcat.o)
 .ARM.attributes
                0x0000098a       0x29 c:/program files (x86)/microsemi/softconsole v3.4/sourcery-g++/bin/../lib/gcc/arm-none-eabi/4.4.1/../../../../arm-none-eabi/lib/thumb2\libc.a(lib_a-strchr.o)
 .ARM.attributes
                0x000009b3       0x29 c:/program files (x86)/microsemi/softconsole v3.4/sourcery-g++/bin/../lib/gcc/arm-none-eabi/4.4.1/../../../../arm-none-eabi/lib/thumb2\libc.a(lib_a-strcpy.o)
 .ARM.attributes
                0x000009dc       0x29 c:/program files (x86)/microsemi/softconsole v3.4/sourcery-g++/bin/../lib/gcc/arm-none-eabi/4.4.1/../../../../arm-none-eabi/lib/thumb2\libc.a(lib_a-strlen.o)
 .ARM.attributes
                0x00000a05       0x29 c:/program files (x86)/microsemi/softconsole v3.4/sourcery-g++/bin/../lib/gcc/arm-none-eabi/4.4.1/../../../../arm-none-eabi/lib/thumb2\libc.a(lib_a-strncmp.o)
 .ARM.attributes
                0x00000a2e       0x29 c:/program files (x86)/microsemi/softconsole v3.4/sourcery-g++/bin/../lib/gcc/arm-none-eabi/4.4.1/../../../../arm-none-eabi/lib/thumb2\libc.a(lib_a-strncpy.o)
 .ARM.attributes
                0x00000a57       0x29 c:/program files (x86)/microsemi/softconsole v3.4/sourcery-g++/bin/../lib/gcc/arm-none-eabi/4.4.1/../../../../arm-none-eabi/lib/thumb2\libc.a(lib_a-strrchr.o)
 .ARM.attributes
                0x00000a80       0x29 c:/program files (x86)/microsemi/softconsole v3.4/sourcery-g++/bin/../lib/gcc/arm-none-eabi/4.4.1/../../../../arm-none-eabi/lib/thumb2\libc.a(lib_a-strstr.o)
 .ARM.attributes
                0x00000aa9       0x29 c:/program files (x86)/microsemi/softconsole v3.4/sourcery-g++/bin/../lib/gcc/arm-none-eabi/4.4.1/../../../../arm-none-eabi/lib/thumb2\libc.a(lib_a-svfprintf.o)
 .ARM.attributes
                0x00000ad2       0x29 c:/program files (x86)/microsemi/softconsole v3.4/sourcery-g++/bin/../lib/gcc/arm-none-eabi/4.4.1/../../../../arm-none-eabi/lib/thumb2\libc.a(lib_a-timesr.o)
 .ARM.attributes
                0x00000afb       0x29 c:/program files (x86)/microsemi/softconsole v3.4/sourcery-g++/bin/../lib/gcc/arm-none-eabi/4.4.1/../../../../arm-none-eabi/lib/thumb2\libc.a(lib_a-dtoa.o)
 .ARM.attributes
                0x00000b24       0x29 c:/program files (x86)/microsemi/softconsole v3.4/sourcery-g++/bin/../lib/gcc/arm-none-eabi/4.4.1/../../../../arm-none-eabi/lib/thumb2\libc.a(lib_a-ecvtbuf.o)
 .ARM.attributes
                0x00000b4d       0x29 c:/program files (x86)/microsemi/softconsole v3.4/sourcery-g++/bin/../lib/gcc/arm-none-eabi/4.4.1/../../../../arm-none-eabi/lib/thumb2\libc.a(lib_a-freer.o)
 .ARM.attributes
                0x00000b76       0x29 c:/program files (x86)/microsemi/softconsole v3.4/sourcery-g++/bin/../lib/gcc/arm-none-eabi/4.4.1/../../../../arm-none-eabi/lib/thumb2\libc.a(lib_a-locale.o)
 .ARM.attributes
                0x00000b9f       0x29 c:/program files (x86)/microsemi/softconsole v3.4/sourcery-g++/bin/../lib/gcc/arm-none-eabi/4.4.1/../../../../arm-none-eabi/lib/thumb2\libc.a(lib_a-malloc.o)
 .ARM.attributes
                0x00000bc8       0x29 c:/program files (x86)/microsemi/softconsole v3.4/sourcery-g++/bin/../lib/gcc/arm-none-eabi/4.4.1/../../../../arm-none-eabi/lib/thumb2\libc.a(lib_a-mallocr.o)
 .ARM.attributes
                0x00000bf1       0x29 c:/program files (x86)/microsemi/softconsole v3.4/sourcery-g++/bin/../lib/gcc/arm-none-eabi/4.4.1/../../../../arm-none-eabi/lib/thumb2\libc.a(lib_a-memchr.o)
 .ARM.attributes
                0x00000c1a       0x29 c:/program files (x86)/microsemi/softconsole v3.4/sourcery-g++/bin/../lib/gcc/arm-none-eabi/4.4.1/../../../../arm-none-eabi/lib/thumb2\libc.a(lib_a-memcmp.o)
 .ARM.attributes
                0x00000c43       0x29 c:/program files (x86)/microsemi/softconsole v3.4/sourcery-g++/bin/../lib/gcc/arm-none-eabi/4.4.1/../../../../arm-none-eabi/lib/thumb2\libc.a(lib_a-memmove.o)
 .ARM.attributes
                0x00000c6c       0x29 c:/program files (x86)/microsemi/softconsole v3.4/sourcery-g++/bin/../lib/gcc/arm-none-eabi/4.4.1/../../../../arm-none-eabi/lib/thumb2\libc.a(lib_a-mlock.o)
 .ARM.attributes
                0x00000c95       0x29 c:/program files (x86)/microsemi/softconsole v3.4/sourcery-g++/bin/../lib/gcc/arm-none-eabi/4.4.1/../../../../arm-none-eabi/lib/thumb2\libc.a(lib_a-mprec.o)
 .ARM.attributes
                0x00000cbe       0x29 c:/program files (x86)/microsemi/softconsole v3.4/sourcery-g++/bin/../lib/gcc/arm-none-eabi/4.4.1/../../../../arm-none-eabi/lib/thumb2\libc.a(lib_a-reallocr.o)
 .ARM.attributes
                0x00000ce7       0x29 c:/program files (x86)/microsemi/softconsole v3.4/sourcery-g++/bin/../lib/gcc/arm-none-eabi/4.4.1/../../../../arm-none-eabi/lib/thumb2\libc.a(lib_a-s_isinfd.o)
 .ARM.attributes
                0x00000d10       0x29 c:/program files (x86)/microsemi/softconsole v3.4/sourcery-g++/bin/../lib/gcc/arm-none-eabi/4.4.1/../../../../arm-none-eabi/lib/thumb2\libc.a(lib_a-s_isnand.o)
 .ARM.attributes
                0x00000d39       0x29 c:/program files (x86)/microsemi/softconsole v3.4/sourcery-g++/bin/../lib/gcc/arm-none-eabi/4.4.1/../../../../arm-none-eabi/lib/thumb2\libc.a(lib_a-sbrkr.o)
 .ARM.attributes
                0x00000d62       0x29 c:/program files (x86)/microsemi/softconsole v3.4/sourcery-g++/bin/../lib/gcc/arm-none-eabi/4.4.1/../../../../arm-none-eabi/lib/thumb2\libc.a(lib_a-strcmp.o)
 .ARM.attributes
                0x00000d8b       0x29 c:/program files (x86)/microsemi/softconsole v3.4/sourcery-g++/bin/../lib/gcc/arm-none-eabi/4.4.1/../../../../arm-none-eabi/lib/thumb2\libc.a(lib_a-callocr.o)
 .ARM.attributes
                0x00000db4       0x29 c:/program files (x86)/microsemi/softconsole v3.4/sourcery-g++/bin/../lib/gcc/arm-none-eabi/4.4.1/../../../../arm-none-eabi/lib/thumb2\libc.a(lib_a-reent.o)
 .ARM.attributes
                0x00000ddd       0x1b c:/program files (x86)/microsemi/softconsole v3.4/sourcery-g++/bin/../lib/gcc/arm-none-eabi/4.4.1/thumb2\libgcc.a(_udivsi3.o)
 .ARM.attributes
                0x00000df8       0x1b c:/program files (x86)/microsemi/softconsole v3.4/sourcery-g++/bin/../lib/gcc/arm-none-eabi/4.4.1/thumb2\libgcc.a(_dvmd_tls.o)
 .ARM.attributes
                0x00000e13       0x1b c:/program files (x86)/microsemi/softconsole v3.4/sourcery-g++/bin/../lib/gcc/arm-none-eabi/4.4.1/thumb2\libgcc.a(_arm_cmpdf2.o)
 .ARM.attributes
                0x00000e2e       0x1b c:/program files (x86)/microsemi/softconsole v3.4/sourcery-g++/bin/../lib/gcc/arm-none-eabi/4.4.1/thumb2\libgcc.a(_arm_fixdfsi.o)
 .ARM.attributes
                0x00000e49       0x1b c:/program files (x86)/microsemi/softconsole v3.4/sourcery-g++/bin/../lib/gcc/arm-none-eabi/4.4.1/thumb2\libgcc.a(_aeabi_uldivmod.o)
 .ARM.attributes
                0x00000e64       0x29 c:/program files (x86)/microsemi/softconsole v3.4/sourcery-g++/bin/../lib/gcc/arm-none-eabi/4.4.1/thumb2\libgcc.a(bpabi.o)
 .ARM.attributes
                0x00000e8d       0x29 c:/program files (x86)/microsemi/softconsole v3.4/sourcery-g++/bin/../lib/gcc/arm-none-eabi/4.4.1/thumb2\libgcc.a(_divdi3.o)
 .ARM.attributes
                0x00000eb6       0x29 c:/program files (x86)/microsemi/softconsole v3.4/sourcery-g++/bin/../lib/gcc/arm-none-eabi/4.4.1/thumb2\libgcc.a(_udivdi3.o)
 .ARM.attributes
                0x00000edf       0x29 c:/program files (x86)/microsemi/softconsole v3.4/sourcery-g++/bin/../lib/gcc/arm-none-eabi/4.4.1/thumb2/crtend.o
 .ARM.attributes
                0x00000f08       0x19 c:/program files (x86)/microsemi/softconsole v3.4/sourcery-g++/bin/../lib/gcc/arm-none-eabi/4.4.1/thumb2/crtn.o

/DISCARD/
 *(.note.GNU-stack)
OUTPUT(Measurement_System elf32-littlearm)

.debug_ranges   0x00000000     0x12f0
 .debug_ranges  0x00000000       0x40 ./ParTest.o
 .debug_ranges  0x00000040       0xb0 ./main-full.o
 .debug_ranges  0x000000f0       0x68 ./uIP_Task.o
 .debug_ranges  0x00000158       0x90 ./WebServer/httpd-cgi.o
 .debug_ranges  0x000001e8       0x40 ./MicroSemi_Code/hal/CortexM3/cortex_nvic.o
 .debug_ranges  0x00000228       0x18 ./MicroSemi_Code/hal/CortexM3/GNU/hal_assert.o
 .debug_ranges  0x00000240       0xd0 ./MicroSemi_Code/drivers/mss_uart/mss_uart.o
 .debug_ranges  0x00000310      0x138 ./MicroSemi_Code/drivers/mss_i2c/mss_i2c.o
 .debug_ranges  0x00000448       0x58 ./MicroSemi_Code/drivers/mss_gpio/mss_gpio.o
 .debug_ranges  0x000004a0       0x20 ./MicroSemi_Code/drivers/mss_ethernet_mac/crc32.o
 .debug_ranges  0x000004c0      0x108 ./MicroSemi_Code/drivers/mss_ethernet_mac/mss_ethernet_mac.o
 .debug_ranges  0x000005c8       0x68 ./MicroSemi_Code/drivers/mss_ethernet_mac/phy.o
 .debug_ranges  0x00000630       0xa8 ./MicroSemi_Code/drivers/mss_ace/ace_convert.o
 .debug_ranges  0x000006d8      0x1e0 ./MicroSemi_Code/drivers/mss_ace/ace_flags.o
 .debug_ranges  0x000008b8       0x60 ./MicroSemi_Code/drivers/mss_ace/ace_sse.o
 .debug_ranges  0x00000918       0x80 ./MicroSemi_Code/drivers/mss_ace/ace_transform.o
 .debug_ranges  0x00000998       0xd8 ./MicroSemi_Code/drivers/mss_ace/mss_ace.o
 .debug_ranges  0x00000a70       0x18 ./MicroSemi_Code/CMSIS/brownout_isr.o
 .debug_ranges  0x00000a88       0xc0 ./MicroSemi_Code/CMSIS/core_cm3.o
 .debug_ranges  0x00000b48       0x28 ./MicroSemi_Code/CMSIS/system_a2fxxxm3.o
 .debug_ranges  0x00000b70       0xa0 ./MicroSemi_Code/CMSIS/startup_gcc/newlib_stubs.o
 .debug_ranges  0x00000c10       0x18 ./Helpers/uart_helper.o
 .debug_ranges  0x00000c28       0x70 ./FreeTCPIP/psock.o
 .debug_ranges  0x00000c98       0x38 ./FreeTCPIP/timer.o
 .debug_ranges  0x00000cd0       0x98 ./FreeTCPIP/uip.o
 .debug_ranges  0x00000d68       0x38 ./FreeTCPIP/uip_arp.o
 .debug_ranges  0x00000da0       0x30 ./FreeTCPIP/http_Common/httpd-fs.o
 .debug_ranges  0x00000dd0       0x68 ./FreeTCPIP/http_Common/httpd.o
 .debug_ranges  0x00000e38       0x38 ./FreeRTOS_Source/list.o
 .debug_ranges  0x00000e70      0x108 ./FreeRTOS_Source/queue.o
 .debug_ranges  0x00000f78      0x210 ./FreeRTOS_Source/tasks.o
 .debug_ranges  0x00001188       0xc0 ./FreeRTOS_Source/timers.o
 .debug_ranges  0x00001248       0x38 ./FreeRTOS_Source/portable/MemMang/heap_2.o
 .debug_ranges  0x00001280       0x70 ./FreeRTOS_Source/portable/GCC/ARM_CM3/port.o
